(dp0
S'Text'
p1
S'#amici15 #giudamorgan non convince.'
p2
sS'Created At'
p3
S'2016-04-16 21:55:01'
p4
s.(dp0
S'Text'
p1
S'alessio #amici15 @amiciufficiale'
p2
sS'Created At'
p3
S'2016-04-16 21:56:13'
p4
s.(dp0
S'Text'
p1
S'https://t.co/f9o1wtrxay retweeted\xc2\xa0https://t.co/t1jahonmyn'
p2
sS'Created At'
p3
S'2016-04-16 21:56:56'
p4
s.(dp0
S'Text'
p1
S'https://t.co/f9o1wtrxay retweeted\xc2\xa0https://t.co/rwh6gy7q0i'
p2
sS'Created At'
p3
S'2016-04-16 21:56:56'
p4
s.(dp0
S'Text'
p1
S'cappottone number 2\n\xe2\x9c\x88\xef\xb8\x8f\xe2\x9c\x88\xef\xb8\x8f\xe2\x9c\x88\xef\xb8\x8f #amici15'
p2
sS'Created At'
p3
S'2016-04-16 21:57:31'
p4
s.(dp0
S'Text'
p1
S'"spengo anna oxa" is the new "schiero stash and the kolors" #amici15'
p2
sS'Created At'
p3
S'2016-04-16 21:57:42'
p4
s.(dp0
S'Text'
p1
S'@eleutheriana \xf0\x9f\x98\x82 identicooo!!! wow!! \xf0\x9f\x8e\xa4 https://t.co/o0tx0syfnf'
p2
sS'Created At'
p3
S'2016-04-16 21:58:31'
p4
s.(dp0
S'Text'
p1
S'@assail104\n\n#nbaplayoffs \n #amici15 \n dwight howard \n  #thevoice  \n  #cccc  \n    harden  \n   #luansantananocaldeir\xc3\xa3o'
p2
sS'Created At'
p3
S'2016-04-16 21:58:35'
p4
s.(dp0
S'Text'
p1
S'helloneeeeeeee \xf0\x9f\x8e\x89\xe2\x9a\xaa\xef\xb8\x8f\xe2\x9d\xa4\xef\xb8\x8f #amici15'
p2
sS'Created At'
p3
S'2016-04-16 21:58:36'
p4
s.(dp0
S'Text'
p1
S"ha, i knew they'd win twice ;) #amici15"
p2
sS'Created At'
p3
S'2016-04-16 21:58:52'
p4
s.(dp0
S'Text'
p1
S'@assail104\n#nbaplayoffs \n #amici15 \n dwight howard \n  #thevoice  \n  #cccc  \n    harden  \n   #luansantananocaldeir\xc3\xa3o'
p2
sS'Created At'
p3
S'2016-04-16 21:58:59'
p4
s.(dp0
S'Text'
p1
S'ma porcoddd \n#amici15'
p2
sS'Created At'
p3
S'2016-04-16 21:59:01'
p4
s.(dp0
S'Text'
p1
S'che goduriaaaa \xe2\x9a\xaa #amici15'
p2
sS'Created At'
p3
S'2016-04-16 21:59:04'
p4
s.(dp0
S'Text'
p1
S'@assail104\n#nbaplayoffs \n #amici15 \n dwight howard \n  #thevoice  \n  #cccc  \n    harden  \n   #luansantananocaldeir\xc3\xa3o'
p2
sS'Created At'
p3
S'2016-04-16 21:59:22'
p4
s.(dp0
S'Text'
p1
S'go go go go go!!!!!! forza bianchiiiiii !!!! #amici15'
p2
sS'Created At'
p3
S'2016-04-16 21:59:30'
p4
s.(dp0
S'Text'
p1
S'@assail104\n\n#nbaplayoffs \n #amici15 \n dwight howard \n  #thevoice  \n  #cccc  \n    harden  \n   #luansantananocaldeir\xc3\xa3o'
p2
sS'Created At'
p3
S'2016-04-16 21:59:46'
p4
s.(dp0
S'Text'
p1
S'che ansia #amici15'
p2
sS'Created At'
p3
S'2016-04-16 21:59:50'
p4
s.(dp0
S'Text'
p1
S'top trends worldwide\xf0\x9f\x8c\x90-apr16 21:35 utc\n#amici15\xf0\x9f\x86\x95\n#thevoice\xf0\x9f\x86\x95\n#luansantananocaldeir\xc3\xa3o\xf0\x9f\x94\x84\n#nbaplayoffs\xf0\x9f\x86\x95\n#\xd8\xb1\xd8\xa7\xd8\xad\xd9\x87_\xd8\xa7\xd9\x84\xd8\xa8\xd8\xa7\xd9\x84_\xd9\x81\xf0\x9f\x93\x88\n\nhttps://t.co/jprhhmmqfz'
p2
sS'Created At'
p3
S'2016-04-16 22:00:00'
p4
s.(dp0
S'Text'
p1
S'#amici15\nronaldo with his new girlfriend she is gorgeous \nhttps://t.co/lppko9expi\n#ibtissamtiskat'
p2
sS'Created At'
p3
S'2016-04-16 22:00:03'
p4
s.(dp0
S'Text'
p1
S'1. #amici15\n2. #internapoli\n3. #ballandoconlestelle\n4. #ulisse\n5. #cristianoseiilnostrovincitore\n\n2016/4/16 23:54 cest'
p2
sS'Created At'
p3
S'2016-04-16 22:00:16'
p4
s.(dp0
S'Text'
p1
S'worldwide\n1 #amici15\n2 #thevoice\n3 #luansantananocaldeir\xc3\xa3o\n4 #nbaplayoffs\n5 #\xd8\xb1\xd8\xa7\xd8\xad\xd9\x87_\xd8\xa7\xd9\x84\xd8\xa8\xd8\xa7\xd9\x84_\xd9\x81\n7 harden https://t.co/jnsyip1qtv'
p2
sS'Created At'
p3
S'2016-04-16 22:00:23'
p4
s.(dp0
S'Text'
p1
S'#amici15 mood: https://t.co/55vr7kbgqg'
p2
sS'Created At'
p3
S'2016-04-16 22:00:40'
p4
s.(dp0
S'Text'
p1
S'twittertrend: #amici15 is now trending worldwide, ranking 1 [23:36] check whoz trending this tweet at https://t.co/q1p7fawqwx'
p2
sS'Created At'
p3
S'2016-04-16 22:01:08'
p4
s.(dp0
S'Text'
p1
S'#amici15\nronaldo with his new girlfriend she is gorgeous \nhttps://t.co/0yuf22jvr6\n#ibtissamtiskat'
p2
sS'Created At'
p3
S'2016-04-16 22:01:10'
p4
s.(dp0
S'Text'
p1
S"how does michele keep escaping? he's not even that good. #amici15"
p2
sS'Created At'
p3
S'2016-04-16 22:01:34'
p4
s.(dp0
S'Text'
p1
S"stop talking about #amici15! let's discuss icon dollz!"
p2
sS'Created At'
p3
S'2016-04-16 22:02:09'
p4
s.(dp0
S'Text'
p1
S'love. basta. #amici15'
p2
sS'Created At'
p3
S'2016-04-16 22:02:10'
p4
s.(dp0
S'Text'
p1
S'wellaaaaaa https://t.co/ygppvaorzp'
p2
sS'Created At'
p3
S'2016-04-16 22:02:26'
p4
s.(dp0
S'Text'
p1
S"#thevoice\n#amici15\n#\xef\xbb\xa3\xef\xba\x8e_\xef\xbb\x93\xef\xbb\xb2_\xef\xbb\xa3\xef\xbb\xa6_\xef\xba\xa3\xef\xba\x92\xef\xbb\xb4\xef\xba\x92\xef\xbb\xb2 \n#ibtissamtiskat\nlisten to this amazing song  you won't regret it \xf0\x9f\x8e\xb5 \xf0\x9f\x8e\xb6\xf0\x9f\x8e\xa4 \n \xf0\x9f\x91\x87\nhttps://t.co/pld9smi0hi"
p2
sS'Created At'
p3
S'2016-04-16 22:02:37'
p4
s.(dp0
S'Text'
p1
S"#thevoice\n#amici15\n#\xef\xbb\xa3\xef\xba\x8e_\xef\xbb\x93\xef\xbb\xb2_\xef\xbb\xa3\xef\xbb\xa6_\xef\xba\xa3\xef\xba\x92\xef\xbb\xb4\xef\xba\x92\xef\xbb\xb2 \n#ibtissamtiskat\nlisten to this amazing song  you won't regret it \xf0\x9f\x8e\xb5 \xf0\x9f\x8e\xb6\xf0\x9f\x8e\xa4 \n \xf0\x9f\x91\x87\nhttps://t.co/n2unjie8ap"
p2
sS'Created At'
p3
S'2016-04-16 22:02:37'
p4
s.(dp0
S'Text'
p1
S"#thevoice\n#amici15\n#\xef\xbb\xa3\xef\xba\x8e_\xef\xbb\x93\xef\xbb\xb2_\xef\xbb\xa3\xef\xbb\xa6_\xef\xba\xa3\xef\xba\x92\xef\xbb\xb4\xef\xba\x92\xef\xbb\xb2 \n#ibtissamtiskat\nlisten to this amazing song  you won't regret it \xf0\x9f\x8e\xb5 \xf0\x9f\x8e\xb6\xf0\x9f\x8e\xa4 \n \xf0\x9f\x91\x87\nhttps://t.co/sqqy1me8on"
p2
sS'Created At'
p3
S'2016-04-16 22:02:37'
p4
s.(dp0
S'Text'
p1
S"#thevoice\n#amici15\n#\xef\xbb\xa3\xef\xba\x8e_\xef\xbb\x93\xef\xbb\xb2_\xef\xbb\xa3\xef\xbb\xa6_\xef\xba\xa3\xef\xba\x92\xef\xbb\xb4\xef\xba\x92\xef\xbb\xb2 \n#ibtissamtiskat\nlisten to this amazing song  you won't regret it \xf0\x9f\x8e\xb5 \xf0\x9f\x8e\xb6\xf0\x9f\x8e\xa4 \n \xf0\x9f\x91\x87\nhttps://t.co/pn3jyltlfa"
p2
sS'Created At'
p3
S'2016-04-16 22:02:37'
p4
s.(dp0
S'Text'
p1
S"#thevoice\n#amici15\n#\xef\xbb\xa3\xef\xba\x8e_\xef\xbb\x93\xef\xbb\xb2_\xef\xbb\xa3\xef\xbb\xa6_\xef\xba\xa3\xef\xba\x92\xef\xbb\xb4\xef\xba\x92\xef\xbb\xb2 \n#ibtissamtiskat\nlisten to this amazing song  you won't regret it \xf0\x9f\x8e\xb5 \xf0\x9f\x8e\xb6\xf0\x9f\x8e\xa4 \n \xf0\x9f\x91\x87\nhttps://t.co/hj5wpk5ehz"
p2
sS'Created At'
p3
S'2016-04-16 22:02:37'
p4
s.(dp0
S'Text'
p1
S"#thevoice\n#amici15\n#\xef\xbb\xa3\xef\xba\x8e_\xef\xbb\x93\xef\xbb\xb2_\xef\xbb\xa3\xef\xbb\xa6_\xef\xba\xa3\xef\xba\x92\xef\xbb\xb4\xef\xba\x92\xef\xbb\xb2 \n#ibtissamtiskat\nlisten to this amazing song  you won't regret it \xf0\x9f\x8e\xb5 \xf0\x9f\x8e\xb6\xf0\x9f\x8e\xa4 \n \xf0\x9f\x91\x87\nhttps://t.co/ub9m4bwlaf"
p2
sS'Created At'
p3
S'2016-04-16 22:02:37'
p4
s.(dp0
S'Text'
p1
S"#thevoice\n#amici15\n#\xef\xbb\xa3\xef\xba\x8e_\xef\xbb\x93\xef\xbb\xb2_\xef\xbb\xa3\xef\xbb\xa6_\xef\xba\xa3\xef\xba\x92\xef\xbb\xb4\xef\xba\x92\xef\xbb\xb2 \n#ibtissamtiskat\nlisten to this amazing song  you won't regret it \xf0\x9f\x8e\xb5 \xf0\x9f\x8e\xb6\xf0\x9f\x8e\xa4 \n \xf0\x9f\x91\x87\nhttps://t.co/b8epikkzt8"
p2
sS'Created At'
p3
S'2016-04-16 22:02:37'
p4
s.(dp0
S'Text'
p1
S"#thevoice\n#amici15\n#\xef\xbb\xa3\xef\xba\x8e_\xef\xbb\x93\xef\xbb\xb2_\xef\xbb\xa3\xef\xbb\xa6_\xef\xba\xa3\xef\xba\x92\xef\xbb\xb4\xef\xba\x92\xef\xbb\xb2 \n#ibtissamtiskat\nlisten to this amazing song  you won't regret it \xf0\x9f\x8e\xb5 \xf0\x9f\x8e\xb6\xf0\x9f\x8e\xa4 \n \xf0\x9f\x91\x87\nhttps://t.co/hs6tmzhbjv"
p2
sS'Created At'
p3
S'2016-04-16 22:02:37'
p4
s.(dp0
S'Text'
p1
S"#thevoice\n#amici15\n#\xef\xbb\xa3\xef\xba\x8e_\xef\xbb\x93\xef\xbb\xb2_\xef\xbb\xa3\xef\xbb\xa6_\xef\xba\xa3\xef\xba\x92\xef\xbb\xb4\xef\xba\x92\xef\xbb\xb2 \n#ibtissamtiskat\nlisten to this amazing song  you won't regret it \xf0\x9f\x8e\xb5 \xf0\x9f\x8e\xb6\xf0\x9f\x8e\xa4 \n \xf0\x9f\x91\x87\nhttps://t.co/etv33qxyp2"
p2
sS'Created At'
p3
S'2016-04-16 22:02:37'
p4
s.(dp0
S'Text'
p1
S"#thevoice\n#amici15\n#\xef\xbb\xa3\xef\xba\x8e_\xef\xbb\x93\xef\xbb\xb2_\xef\xbb\xa3\xef\xbb\xa6_\xef\xba\xa3\xef\xba\x92\xef\xbb\xb4\xef\xba\x92\xef\xbb\xb2 \n#ibtissamtiskat\nlisten to this amazing song  you won't regret it \xf0\x9f\x8e\xb5 \xf0\x9f\x8e\xb6\xf0\x9f\x8e\xa4 \n \xf0\x9f\x91\x87\nhttps://t.co/wk4jn3jnmn"
p2
sS'Created At'
p3
S'2016-04-16 22:02:37'
p4
s.(dp0
S'Text'
p1
S"#thevoice\n#amici15\n#\xef\xbb\xa3\xef\xba\x8e_\xef\xbb\x93\xef\xbb\xb2_\xef\xbb\xa3\xef\xbb\xa6_\xef\xba\xa3\xef\xba\x92\xef\xbb\xb4\xef\xba\x92\xef\xbb\xb2 \n#ibtissamtiskat\nlisten to this amazing song  you won't regret it \xf0\x9f\x8e\xb5 \xf0\x9f\x8e\xb6\xf0\x9f\x8e\xa4 \n \xf0\x9f\x91\x87\nhttps://t.co/vih6ruknpc"
p2
sS'Created At'
p3
S'2016-04-16 22:02:37'
p4
s.(dp0
S'Text'
p1
S"#thevoice\n#amici15\n#\xef\xbb\xa3\xef\xba\x8e_\xef\xbb\x93\xef\xbb\xb2_\xef\xbb\xa3\xef\xbb\xa6_\xef\xba\xa3\xef\xba\x92\xef\xbb\xb4\xef\xba\x92\xef\xbb\xb2 \n#ibtissamtiskat\nlisten to this amazing song  you won't regret it \xf0\x9f\x8e\xb5 \xf0\x9f\x8e\xb6\xf0\x9f\x8e\xa4 \n \xf0\x9f\x91\x87\nhttps://t.co/r21unlsyoo"
p2
sS'Created At'
p3
S'2016-04-16 22:02:37'
p4
s.(dp0
S'Text'
p1
S'waaaaa adesso canta smells like teen spirit #amici15  #cristianoseiilnostrovincitore'
p2
sS'Created At'
p3
S'2016-04-16 22:04:32'
p4
s.(dp0
S'Text'
p1
S'smells like 10 spirit. #amici15'
p2
sS'Created At'
p3
S'2016-04-16 22:04:38'
p4
s.(dp0
S'Text'
p1
S'smells like teen spirit. e non ci sono cazzy per nessuno. #amici15'
p2
sS'Created At'
p3
S'2016-04-16 22:04:47'
p4
s.(dp0
S'Text'
p1
S'smells like a teen spirit e vado a dormire caricaaaa\xf0\x9f\x8e\xb8\n#amici15'
p2
sS'Created At'
p3
S'2016-04-16 22:04:52'
p4
s.(dp0
S'Text'
p1
S'sto male  #amici15'
p2
sS'Created At'
p3
S'2016-04-16 22:04:54'
p4
s.(dp0
S'Text'
p1
S'https://t.co/s4phprnzmr dm #deivid #dwight howard #amici15'
p2
sS'Created At'
p3
S'2016-04-16 22:04:59'
p4
s.(dp0
S'Text'
p1
S'smells like teen spirit, adoro troppo #amici15'
p2
sS'Created At'
p3
S'2016-04-16 22:05:03'
p4
s.(dp0
S'Text'
p1
S'me rn: #amici15 https://t.co/nd2osbouky'
p2
sS'Created At'
p3
S'2016-04-16 22:05:13'
p4
s.(dp0
S'Text'
p1
S'cris che canta smells like teen spirit. aaah ok. #amici15'
p2
sS'Created At'
p3
S'2016-04-16 22:05:15'
p4
s.(dp0
S'Text'
p1
S'smells like teen spirit \xf0\x9f\x98\x8d\xf0\x9f\x98\x8d\xf0\x9f\x98\x8d\xf0\x9f\x98\x8d\n#amici15'
p2
sS'Created At'
p3
S'2016-04-16 22:05:16'
p4
s.(dp0
S'Text'
p1
S"i told you not to touch nirvana, stupid boy. that's why you're going home. #amici15"
p2
sS'Created At'
p3
S'2016-04-16 22:05:33'
p4
s.(dp0
S'Text'
p1
S'smes laic ten spirat #amici15'
p2
sS'Created At'
p3
S'2016-04-16 22:05:33'
p4
s.(dp0
S'Text'
p1
S'my sun\xf0\x9f\x8c\x9e https://t.co/oppd5xtsge'
p2
sS'Created At'
p3
S'2016-04-16 22:05:33'
p4
s.(dp0
S'Text'
p1
S'#amici15\n\nfollow \xf0\x9f\x91\x87\xf0\x9f\x8f\xbc\n\n\xe2\x9e\xa1\xef\xb8\x8f @ali_alfaisall \n\xe2\x9e\xa1\xef\xb8\x8f https://t.co/eifnrlury7\n\xe2\x9e\xa1\xef\xb8\x8f https://t.co/s9tk1rto9t https://t.co/dgcrteqvt8'
p2
sS'Created At'
p3
S'2016-04-16 22:05:38'
p4
s.(dp0
S'Text'
p1
S'#amici15 entertain uuuuus'
p2
sS'Created At'
p3
S'2016-04-16 22:05:50'
p4
s.(dp0
S'Text'
p1
S'smells love teen spirits &gt;&gt;&gt;&gt;&gt;&gt;&gt;\n#amici15'
p2
sS'Created At'
p3
S'2016-04-16 22:06:04'
p4
s.(dp0
S'Text'
p1
S'mood attuale: michele #amici15'
p2
sS'Created At'
p3
S'2016-04-16 22:06:05'
p4
s.(dp0
S'Text'
p1
S'smells like teen spirit e partono subito le lacrime #amici15'
p2
sS'Created At'
p3
S'2016-04-16 22:06:09'
p4
s.(dp0
S'Text'
p1
S'parole cantate in inglese\n0\n#amici15'
p2
sS'Created At'
p3
S'2016-04-16 22:06:15'
p4
s.(dp0
S'Text'
p1
S'cristiano con smells like teen spirit ha spaccato.\n#amici15'
p2
sS'Created At'
p3
S'2016-04-16 22:06:21'
p4
s.(dp0
S'Text'
p1
S'smell like teen spirit \xf0\x9f\x92\x97 #amici15'
p2
sS'Created At'
p3
S'2016-04-16 22:06:30'
p4
s.(dp0
S'Text'
p1
S'identico a murphy! #amici15 https://t.co/2nfuoi9yhi'
p2
sS'Created At'
p3
S'2016-04-16 22:06:32'
p4
s.(dp0
S'Text'
p1
S'smells love teen spirit &gt;&gt;&gt;&gt;&gt;&gt;&gt;\n#amici15'
p2
sS'Created At'
p3
S'2016-04-16 22:06:37'
p4
s.(dp0
S'Text'
p1
S'chiara canta una versione arrangiata personalmente di \xe2\x80\x9csomebody that i used to know\xe2\x80\x9d! #amici15 \xf0\x9f\x8e\xb9\xf0\x9f\x8e\xb9\xf0\x9f\x8e\xb9 https://t.co/hfn6duj5se'
p2
sS'Created At'
p3
S'2016-04-16 22:06:48'
p4
s.(dp0
S'Text'
p1
S'\'somebody that i used to know" adesso piango. #amici15'
p2
sS'Created At'
p3
S'2016-04-16 22:06:53'
p4
s.(dp0
S'Text'
p1
S'my life https://t.co/qhblneyv3t'
p2
sS'Created At'
p3
S'2016-04-16 22:06:56'
p4
s.(dp0
S'Text'
p1
S'somebody that i used to know #amici15'
p2
sS'Created At'
p3
S'2016-04-16 22:07:15'
p4
s.(dp0
S'Text'
p1
S'just this. #cristianoseiilnostrovincitore  https://t.co/cwnzmlfnwt'
p2
sS'Created At'
p3
S'2016-04-16 22:07:28'
p4
s.(dp0
S'Text'
p1
S'i love u crissss #amici15 https://t.co/sfioceoeo6'
p2
sS'Created At'
p3
S'2016-04-16 22:07:37'
p4
s.(dp0
S'Text'
p1
S'can both of them go home now plz? #amici15'
p2
sS'Created At'
p3
S'2016-04-16 22:07:44'
p4
s.(dp0
S'Text'
p1
S'cristiano che canta smells like teen spirit. sto volando #amici15'
p2
sS'Created At'
p3
S'2016-04-16 22:07:49'
p4
s.(dp0
S'Text'
p1
S'#amici15 married women sex follow me'
p2
sS'Created At'
p3
S'2016-04-16 22:08:03'
p4
s.(dp0
S'Text'
p1
S'i am here https://t.co/bgqqyf4dqm'
p2
sS'Created At'
p3
S'2016-04-16 22:08:07'
p4
s.(dp0
S'Text'
p1
S'che brava halsey #amici15'
p2
sS'Created At'
p3
S'2016-04-16 22:08:10'
p4
s.(dp0
S'Text'
p1
S'smells like teen, non ten \ncristo \n#amici15'
p2
sS'Created At'
p3
S'2016-04-16 22:08:10'
p4
s.(dp0
S'Text'
p1
S'somebody i used to know\nla miaa morte\n#amici15'
p2
sS'Created At'
p3
S'2016-04-16 22:08:12'
p4
s.(dp0
S'Text'
p1
S'#amici15\n\nfollow \xf0\x9f\x91\x87\xf0\x9f\x8f\xbc\n\n\xe2\x9e\xa1\xef\xb8\x8f @ali_alfaisall \n\xe2\x9e\xa1\xef\xb8\x8f https://t.co/eifnrlury7\n\xe2\x9e\xa1\xef\xb8\x8f https://t.co/s9tk1rto9t https://t.co/m5qgj9tkwn'
p2
sS'Created At'
p3
S'2016-04-16 22:08:18'
p4
s.(dp0
S'Text'
p1
S'cos i pacc.. \n#ifora https://t.co/ksobtsjek7'
p2
sS'Created At'
p3
S'2016-04-16 22:08:34'
p4
s.(dp0
S'Text'
p1
S'still #amici15'
p2
sS'Created At'
p3
S'2016-04-16 22:08:50'
p4
s.(dp0
S'Text'
p1
S'worldwide new trending topics: #amici15, #ballandoconlestelle, #fitnecizihni\xc3\x87ak\xc4\xb1r. #tt #topicswww https://t.co/uiafsvwz6w'
p2
sS'Created At'
p3
S'2016-04-16 22:09:02'
p4
s.(dp0
S'Text'
p1
S'https://t.co/f9o1wtrxay retweeted\xc2\xa0https://t.co/crwnnovbrn'
p2
sS'Created At'
p3
S'2016-04-16 22:09:14'
p4
s.(dp0
S'Text'
p1
S'https://t.co/f9o1wtrxay retweeted\xc2\xa0https://t.co/bo21snhkzw'
p2
sS'Created At'
p3
S'2016-04-16 22:25:35'
p4
s.(dp0
S'Text'
p1
S'https://t.co/f9o1wtrxay retweeted\xc2\xa0https://t.co/mijvnapqck'
p2
sS'Created At'
p3
S'2016-04-16 22:25:35'
p4
s.(dp0
S'Text'
p1
S'https://t.co/f9o1wtrxay retweeted\xc2\xa0https://t.co/iyl7wxe8c7'
p2
sS'Created At'
p3
S'2016-04-16 22:25:35'
p4
s.(dp0
S'Text'
p1
S'si canta! uptwon funk all together! #amici15 @fonzies_italia https://t.co/lvp1hidvi1'
p2
sS'Created At'
p3
S'2016-04-16 22:25:45'
p4
s.(dp0
S'Text'
p1
S't h i s https://t.co/4rntvucazl'
p2
sS'Created At'
p3
S'2016-04-16 22:26:09'
p4
s.(dp0
S'Text'
p1
S'me rn https://t.co/ft1lf5vwku'
p2
sS'Created At'
p3
S'2016-04-16 22:26:15'
p4
s.(dp0
S'Text'
p1
S'#amici15\n#souhilabenlachhab\nfollow plz \xf0\x9f\x91\x87\xf0\x9f\x98\x8d\n\xe2\x9e\xa1@suhilabnlachhab \n\xe2\x9e\xa1https://t.co/jzzpsyj5n1\n\xe2\x9e\xa1https://t.co/nusekjf8ap https://t.co/r9nvjlvpl1'
p2
sS'Created At'
p3
S'2016-04-16 22:26:23'
p4
s.(dp0
S'Text'
p1
S'amici cancelled #amici15'
p2
sS'Created At'
p3
S'2016-04-16 22:26:41'
p4
s.(dp0
S'Text'
p1
S'all the world is a stage. w. shakespeare #amici15 # cristiano @nekofficial @jaxofficial'
p2
sS'Created At'
p3
S'2016-04-16 22:26:43'
p4
s.(dp0
S'Text'
p1
S'same https://t.co/cgkhl2nvsy'
p2
sS'Created At'
p3
S'2016-04-16 22:27:28'
p4
s.(dp0
S'Text'
p1
S'https://t.co/c0pl4mqkdb ri #harden #amici15 #peter rock'
p2
sS'Created At'
p3
S'2016-04-16 22:27:56'
p4
s.(dp0
S'Text'
p1
S'ciao cristiano skaikru, may we meet again. #amici15'
p2
sS'Created At'
p3
S'2016-04-16 22:28:22'
p4
s.(dp0
S'Text'
p1
S'and the tears stream down my face #amici15'
p2
sS'Created At'
p3
S'2016-04-16 22:28:52'
p4
s.(dp0
S'Text'
p1
S'#amici15 #thevoice #nbaplayoffs #onpc i want to win this game #crossyroad https://t.co/eibuokquut'
p2
sS'Created At'
p3
S'2016-04-16 22:29:12'
p4
s.