(dp0
S'Text'
p1
S'chandelier \xe2\x99\xa1 #gtlive3'
p2
sS'Created At'
p3
S'2016-04-16 22:41:59'
p4
s.(dp0
S'Text'
p1
S'siaaaaaaaa \xf0\x9f\x98\x8d\xf0\x9f\x98\x8d\xf0\x9f\x98\x8d\xf0\x9f\x98\x8d\xf0\x9f\x98\x8d\xf0\x9f\x98\x8d\xf0\x9f\x98\x8d imm gonna swinggggg #gtlive3'
p2
sS'Created At'
p3
S'2016-04-16 22:42:00'
p4
s.(dp0
S'Text'
p1
S'chandelier &lt;3  #gtlive3'
p2
sS'Created At'
p3
S'2016-04-16 22:43:03'
p4
s.(dp0
S'Text'
p1
S'the fuuuuuuck! que pasen pero ya. #gtlive3'
p2
sS'Created At'
p3
S'2016-04-16 22:43:16'
p4
s.