(dp0
S'Text'
p1
S"stop talking about #impeachmentday! let's discuss airwalk 720!"
p2
sS'Created At'
p3
S'2016-04-18 03:42:56'
p4
s.(dp0
S'Text'
p1
S'@_lebutterfly scrr https://t.co/6klijqurrn'
p2
sS'Created At'
p3
S'2016-04-18 03:42:59'
p4
s.(dp0
S'Text'
p1
S'dono\ndo\nsite https://t.co/r1r5cexny3'
p2
sS'Created At'
p3
S'2016-04-18 03:43:04'
p4
s.(dp0
S'Text'
p1
S'hashtag #impeachmentday lidera trending topics mundiais do twitter https://t.co/tswnen46zt'
p2
sS'Created At'
p3
S'2016-04-18 03:43:07'
p4
s.(dp0
S'Text'
p1
S"mc' downloads kkkkkkkkkkkkkkk https://t.co/erjqycfup9"
p2
sS'Created At'
p3
S'2016-04-18 03:44:13'
p4
s.(dp0
S'Text'
p1
S'pro-impeachment merchandise on copacabana beach during protests today. #brazil #impeachmentday\xe2\x80\xa6 https://t.co/alexc2yz1a'
p2
sS'Created At'
p3
S'2016-04-18 03:44:15'
p4
s.(dp0
S'Text'
p1
S'@druiddude what you have to say about the #impeachmentday ?'
p2
sS'Created At'
p3
S'2016-04-18 03:44:38'
p4
s.(dp0
S'Text'
p1
S'"trending worldwide 04:44 am bst"\n1. #impeachmentday\n2. cunha\n3. #premiostvynovelas\n4. #bucciovertimechallenge\n5. #elfantasmadeoriana'
p2
sS'Created At'
p3
S'2016-04-18 03:44:58'
p4
s.(dp0
S'Text'
p1
S'[05:45] - world #tt at the moment: 1.#impeachmentday 2.cunha 3.#premiostvynovelas'
p2
sS'Created At'
p3
S'2016-04-18 03:45:04'
p4
s.(dp0
S'Text'
p1
S'about today in #brazil ... #wtf ... #impeachmentday ... #staydilma ... #fordemocracy https://t.co/nk6gff8rkr'
p2
sS'Created At'
p3
S'2016-04-18 03:46:36'
p4
s.(dp0
S'Text'
p1
S'branca, loira, rica no exterior. why am i not surprised? https://t.co/seo1zsbtym'
p2
sS'Created At'
p3
S'2016-04-18 03:46:43'
p4
s.(dp0
S'Text'
p1
S'ustra arrested and tortured rousseff in 1970 for dictatorship resistance. https://t.co/cvchfe0qrk #impeachmentday https://t.co/crd1bxpujq'
p2
sS'Created At'
p3
S'2016-04-18 03:46:48'
p4
s.(dp0
S'Text'
p1
S'a view of point https://t.co/dpzzzn3w6q'
p2
sS'Created At'
p3
S'2016-04-18 03:46:49'
p4
s.(dp0
S'Text'
p1
S"end of socialism in brazil! let's clear it. https://t.co/ofouzdztol"
p2
sS'Created At'
p3
S'2016-04-18 03:46:55'
p4
s.(dp0
S'Text'
p1
S'rousseff #impeachmentday https://t.co/tfjiomevig'
p2
sS'Created At'
p3
S'2016-04-18 03:47:13'
p4
s.(dp0
S'Text'
p1
S'icymi #impeachmentday cos you were sleeping check out @snolen @riogringa @elizondogabriel tls for great details.also https://t.co/g43wxfnmnf'
p2
sS'Created At'
p3
S'2016-04-18 03:47:31'
p4
s.(dp0
S'Text'
p1
S'few min left \xf0\x9f\x92\xa5 download 6 freebies of the week premium fonts graphics wordpress themes more https://t.co/ssua09ztci #impeachmentday #cunha'
p2
sS'Created At'
p3
S'2016-04-18 03:48:09'
p4
s.(dp0
S'Text'
p1
S'pliiiisss #impeachmentday https://t.co/tadp4jvhoe'
p2
sS'Created At'
p3
S'2016-04-18 03:48:43'
p4
s.(dp0
S'Text'
p1
S'#impeachmentday wants to go #rolexkentucky three day event in #lexington #kentucky.grab your now!.https://t.co/l9upvz8fpg'
p2
sS'Created At'
p3
S'2016-04-18 03:49:12'
p4
s.(dp0
S'Text'
p1
S"to prove this isn't a coup d'etat, here's how each state voted for the #impeachmentday blue is yes, red is no. https://t.co/x62vvtvdes"
p2
sS'Created At'
p3
S'2016-04-18 03:49:48'
p4
s.(dp0
S'Text'
p1
S'why so serious, son?!\n#impeachmentday https://t.co/0tud8gyf9e'
p2
sS'Created At'
p3
S'2016-04-18 03:49:48'
p4
s.(dp0
S'Text'
p1
S'impeachment 2016  #impeachmentday https://t.co/lexrqaf5hc'
p2
sS'Created At'
p3
S'2016-04-18 03:49:51'
p4
s.(dp0
S'Text'
p1
S'hashtag #impeachmentday lidera trending topics mundiais do twitter https://t.co/p34cg77gjy'
p2
sS'Created At'
p3
S'2016-04-18 03:50:05'
p4
s.(dp0
S'Text'
p1
S'lula da silva, dilma rousseff &amp; eduardo cunha must be jailed\nno exceptions\n#lula #dilmarousseff #eduardocunha #corruption #impeachmentday'
p2
sS'Created At'
p3
S'2016-04-18 03:50:15'
p4
s.(dp0
S'Text'
p1
S'youranoncentral: while voting to impeach president rousseff, bolsonaro dedicated his vote to the man who tortured \xe2\x80\xa6 https://t.co/fun2wo8hwh'
p2
sS'Created At'
p3
S'2016-04-18 03:50:19'
p4
s.(dp0
S'Text'
p1
S'youranoncentral: ustra arrested and tortured rousseff in 1970 for dictatorship resistance. \xe2\x80\xa6 https://t.co/v5jqhsfogd'
p2
sS'Created At'
p3
S'2016-04-18 03:50:19'
p4
s.(dp0
S'Text'
p1
S"this politic spitting in other congress man, is the must of dilma's government. https://t.co/d6kgfo1juw"
p2
sS'Created At'
p3
S'2016-04-18 03:50:23'
p4
s.(dp0
S'Text'
p1
S'me after #impeachmentday https://t.co/vewgqnol5v'
p2
sS'Created At'
p3
S'2016-04-18 03:50:41'
p4
s.(dp0
S'Text'
p1
S"#impeachmentday has already gone, now it's #thefollowingdayofimpeachmentday."
p2
sS'Created At'
p3
S'2016-04-18 03:51:49'
p4
s.(dp0
S'Text'
p1
S'hashtag #impeachmentday lidera trending topics mundiais do twitter.\nhttps://t.co/6pep3kvlhg  https://t.co/79hbpudg9z'
p2
sS'Created At'
p3
S'2016-04-18 03:51:57'
p4
s.(dp0
S'Text'
p1
S"many figures from #brazil's brutal dictatorship era still occupy senate &amp; other powerful positions. https://t.co/fp20lhetsl #impeachmentday"
p2
sS'Created At'
p3
S'2016-04-18 03:52:02'
p4
s.(dp0
S'Text'
p1
S'read this thread. https://t.co/freoptlgnd'
p2
sS'Created At'
p3
S'2016-04-18 03:52:48'
p4
s.(dp0
S'Text'
p1
S'https://t.co/8kealcti5j retweeted\xc2\xa0https://t.co/88pocuk2dy'
p2
sS'Created At'
p3
S'2016-04-18 03:53:27'
p4
s.(dp0
S'Text'
p1
S'dilma rousseff impeachment: what happens next in brazil https://t.co/bd439wbuag #impeachmentday\nhttps://t.co/v3zxacraac'
p2
sS'Created At'
p3
S'2016-04-18 03:54:27'
p4
s.(dp0
S'Text'
p1
S'worldwide \n1 #impeachmentday\n2 cunha\n3 #premiostvynovelas\n4 #bucciovertimechallenge\n5 #macrisa\n7 bahia https://t.co/pq5uhyjjrk'
p2
sS'Created At'
p3
S'2016-04-18 03:54:32'
p4
s.(dp0
S'Text'
p1
S'listen please please \xf0\x9f\x98\x8d\xf0\x9f\x98\x8d\xf0\x9f\x99\x8f\nhttps://t.co/hwuomisd1i  \n#impeachmentday'
p2
sS'Created At'
p3
S'2016-04-18 03:54:33'
p4
s.(dp0
S'Text'
p1
S'worldwide \n1 #impeachmentday\n2 cunha\n3 #premiostvynovelas\n4 #bucciovertimechallenge\n5 #macrisa\n7 bahia https://t.co/oo3tchmxnf'
p2
sS'Created At'
p3
S'2016-04-18 03:54:42'
p4
s.(dp0
S'Text'
p1
S'what porn do girls like to watch \xf0\x9f\x98\xb1\nknow here \xe2\x9e\xa1 https://t.co/e6flwwsgnm \xf0\x9f\x98\xb2\nhttps://t.co/jnxkbscc6z\n\n#impeachmentday\ncunha\n#premiostvynovelas'
p2
sS'Created At'
p3
S'2016-04-18 03:54:47'
p4
s.(dp0
S'Text'
p1
S'ah a internet \xf0\x9f\x98\x82\xf0\x9f\x98\x82\xf0\x9f\x98\x82\xf0\x9f\x98\x82\xf0\x9f\x98\x82 https://t.co/kmmr6x9cho'
p2
sS'Created At'
p3
S'2016-04-18 03:55:01'
p4
s.(dp0
S'Text'
p1
S'what porn do girls like to watch \xf0\x9f\x98\xb1\nknow here \xe2\x9e\xa1 https://t.co/e6flwwaezc \xf0\x9f\x98\xb2\nhttps://t.co/jnxkbscc6z\n\n#impeachmentday\nsilvio santos\nbruno ara\xc3\xbajo'
p2
sS'Created At'
p3
S'2016-04-18 03:55:15'
p4
s.(dp0
S'Text'
p1
S"#brazil's lower house votes for impeachment process against dilma rousseff https://t.co/x8dfulehdf #impeachmentday https://t.co/9c7ujjyte8"
p2
sS'Created At'
p3
S'2016-04-18 03:56:49'
p4
s.(dp0
S'Text'
p1
S'10 tags/hashtags acerta do #impeachmentday nos trends topics brasil and world! que isso ein brazeeel? \xf0\x9f\x91\x8f\xf0\x9f\x8f\xbc\xf0\x9f\x98\x82'
p2
sS'Created At'
p3
S'2016-04-18 03:56:55'
p4
s.(dp0
S'Text'
p1
S"#impeachmentday was yesterday, but its repercussions will remain for a long time. and that's simply awesome."
p2
sS'Created At'
p3
S'2016-04-18 03:57:22'
p4
s.(dp0
S'Text'
p1
S'sobre o #impeachmentday ::::: disappointed but not surprised'
p2
sS'Created At'
p3
S'2016-04-18 03:58:08'
p4
s.(dp0
S'Text'
p1
S'enter to win $4k in camera gear bundle + #gopro #dslrs #drones #giveaway\n\nenter here\nhttps://t.co/fnespujx1q\n\n #impeachmentday'
p2
sS'Created At'
p3
S'2016-04-18 03:58:18'
p4
s.(dp0
S'Text'
p1
S'@rglioche still working! still tired! still xingando a porra toda! #impeachmentday'
p2
sS'Created At'
p3
S'2016-04-18 03:59:19'
p4
s.(dp0
S'Text'
p1
S'top trends worldwide\xf0\x9f\x8c\x90-apr18 03:50 utc\n#impeachmentday\xf0\x9f\x94\xa5\ncunha\xf0\x9f\x94\xa5\n#premiostvynovelas\n#bucciovertimechallenge\n\nhttps://t.co/jprhhmmqfz'
p2
sS'Created At'
p3
S'2016-04-18 04:00:00'
p4
s.(dp0
S'Text'
p1
S'#impeachmentday shocking video about the earthquake in ecuador we need worldwide support https://t.co/cbphsoshmm'
p2
sS'Created At'
p3
S'2016-04-18 04:00:03'
p4
s.(dp0
S'Text'
p1
S"winds of change are blowing in #brazil, lawmakers vote for #dilmarousseff's impeachment. #impeachmentday"
p2
sS'Created At'
p3
S'2016-04-18 04:37:40'
p4
s.(dp0
S'Text'
p1
S'why would an english hashtag trend in brazil? #impeachmentday  https://t.co/opvdudn2dp'
p2
sS'Created At'
p3
S'2016-04-18 04:37:57'
p4
s.(dp0
S'Text'
p1
S"#impeachmentday is to fool the public into thinking there is popular support for dilma's impeachment. https://t.co/dbqwkohnxm"
p2
sS'Created At'
p3
S'2016-04-18 04:38:24'
p4
s.(dp0
S'Text'
p1
S'brazil, in a hard struggle, starts to ban the sophisticated gang which took over its governement. #impeachmentday'
p2
sS'Created At'
p3
S'2016-04-18 04:39:26'
p4
s.(dp0
S'Text'
p1
S'is this true??? https://t.co/1qiawao5gp'
p2
sS'Created At'
p3
S'2016-04-18 04:39:31'
p4
s.(dp0
S'Text'
p1
S'so true!! and so beautiful!! \xf0\x9f\x98\xa2\xe2\x9d\xa4\xef\xb8\x8f\n\n#respect\n#impeachmentday \n#cunha\n#bucciovertimechallenge\n#premiostvynovelas https://t.co/zur04u77p2'
p2
sS'Created At'
p3
S'2016-04-18 04:39:56'
p4
s.(dp0
S'Text'
p1
S'#impeachmentday topping at number 1. visit https://t.co/kfl6x1g4cg for more related images https://t.co/yzpegvcg4e'
p2
sS'Created At'
p3
S'2016-04-18 04:40:08'
p4
s.(dp0
S'Text'
p1
S'#impeachmentday - so we have to #celebrate when a process for accountability of #politicians start ? and you call this a win !? grey reality'
p2
sS'Created At'
p3
S'2016-04-18 04:41:17'
p4
s.(dp0
S'Text'
p1
S'#impeachmentday gotta love brazilian people'
p2
sS'Created At'
p3
S'2016-04-18 04:41:20'
p4
s.(dp0
S'Text'
p1
S"@marciasouzaofic brazil's lower house thank you!  #impeachmentday #gratitude #gratidao #senadobrasileiro"
p2
sS'Created At'
p3
S'2016-04-18 04:42:11'
p4
s.(dp0
S'Text'
p1
S'petralhas crying starter pack!!! https://t.co/bicpbaofqs'
p2
sS'Created At'
p3
S'2016-04-18 04:42:16'
p4
s.(dp0
S'Text'
p1
S'rip democracy \n04-17th-2016\n#impeachmentday \n#brazil'
p2
sS'Created At'
p3
S'2016-04-18 04:42:36'
p4
s.(dp0
S'Text'
p1
S'@mishacollins what is your opinion about #impeachmentday ?'
p2
sS'Created At'
p3
S'2016-04-18 04:43:14'
p4
s.(dp0
S'Text'
p1
S'https://t.co/65cng8gz17 \nlisten please \xe2\x98\xba\xef\xb8\x8f\xe2\x98\xba\xef\xb8\x8f\xf0\x9f\x98\x8d \n #impeachmentday'
p2
sS'Created At'
p3
S'2016-04-18 04:44:08'
p4
s.(dp0
S'Text'
p1
S'https://t.co/65cng8gz17 \nlisten please \xe2\x98\xba\xef\xb8\x8f\xe2\x98\xba\xef\xb8\x8f\xf0\x9f\x98\x8d \n #impeachmentday xd'
p2
sS'Created At'
p3
S'2016-04-18 04:44:24'
p4
s.(dp0
S'Text'
p1
S'@ragipsoylu carlos latuff sheds crocodile tears.he knows his masters willget dilma down,she cant escape frm this nasty coup #impeachmentday'
p2
sS'Created At'
p3
S'2016-04-18 04:44:42'
p4
s.(dp0
S'Text'
p1
S'somente #impeachmentday https://t.co/7gy4tzf1xw'
p2
sS'Created At'
p3
S'2016-04-18 04:44:50'
p4
s.