(dp0
S'Text'
p1
S'click here to watch the movie: https://t.co/flvhuxveo2 #macrisa #premiostvynovelas #impeachment 7832 https://t.co/30ufartgi0'
p2
sS'Created At'
p3
S'2016-04-18 03:57:57'
p4
s.(dp0
S'Text'
p1
S'few min left \xf0\x9f\x93\x8d download 6 freebies of week premium fonts graphics web themes &amp; more https://t.co/2sbpfdbe9x #macrisa #bahia #update #wow'
p2
sS'Created At'
p3
S'2016-04-18 03:58:59'
p4
s.(dp0
S'Text'
p1
S'business is business... https://t.co/dje3gkykhd'
p2
sS'Created At'
p3
S'2016-04-18 03:59:20'
p4
s.(dp0
S'Text'
p1
S'do not leave your house to fix your computer https://t.co/qweiza0o74 #macrisa jean wyllys'
p2
sS'Created At'
p3
S'2016-04-18 04:00:05'
p4
s.