(dp0
S'Text'
p1
S'wow @warriors are pretty outstanding... love the attitude and team work. particularly @klaythompson #nbaplayoffs \xf0\x9f\x8f\x80\xf0\x9f\x94\xa5 https://t.co/npoef6pypp'
p2
sS'Created At'
p3
S'2016-04-16 22:29:46'
p4
s.(dp0
S'Text'
p1
S'#nbaplayoffs #rockets james harden\xe2\x80\x99s sound and fury, signifying nothing https://t.co/ubxzlgozrg https://t.co/nv2l6n3oax'
p2
sS'Created At'
p3
S'2016-04-16 22:29:47'
p4
s.(dp0
S'Text'
p1
S'#igotthethunder as my team! who do you got? #nbaplayoffs https://t.co/doz4awaf9a'
p2
sS'Created At'
p3
S'2016-04-16 22:29:50'
p4
s.(dp0
S'Text'
p1
S'#igotthewarriors as my team! who do you got? #nbaplayoffs https://t.co/ydscsmnd85'
p2
sS'Created At'
p3
S'2016-04-16 22:29:51'
p4
s.(dp0
S'Text'
p1
S'#igotthewarriors as my team! who do you got? #nbaplayoffs\nhttps://t.co/lh0kmgzpjj'
p2
sS'Created At'
p3
S'2016-04-16 22:29:52'
p4
s.(dp0
S'Text'
p1
S'well look like either howard is leaving houston \xf0\x9f\x98\x9c\xf0\x9f\x98\x9c\xf0\x9f\x98\x9c\xf0\x9f\x98\x9c\xf0\x9f\x98\x9c#nbaplayoffs'
p2
sS'Created At'
p3
S'2016-04-16 22:29:52'
p4
s.(dp0
S'Text'
p1
S'#nbaplayoffs are here! https://t.co/qlhfvc2nn9'
p2
sS'Created At'
p3
S'2016-04-16 22:29:56'
p4
s.(dp0
S'Text'
p1
S'#igottheceltics as my team! who do you got? #nbaplayoffs https://t.co/jzeampcon3'
p2
sS'Created At'
p3
S'2016-04-16 22:29:56'
p4
s.(dp0
S'Text'
p1
S"it's playoffs time. #nbaplayoffs https://t.co/lt6cuqxwk6"
p2
sS'Created At'
p3
S'2016-04-16 22:29:56'
p4
s.(dp0
S'Text'
p1
S'should cannabis be legalized in all states now !! world poll  https://t.co/4uywe3dr6h  #nbaplayoffs #ufctampa #cccc #lemonade   #weedlaws'
p2
sS'Created At'
p3
S'2016-04-16 22:29:57'
p4
s.(dp0
S'Text'
p1
S'@warriors shock the world and take game 1 in ease vs @houstonrockets \xf0\x9f\x98\x82\n#dubnation #nbaplayoffs #thisiswhyweplay https://t.co/x0nx2wgk48'
p2
sS'Created At'
p3
S'2016-04-16 22:29:57'
p4
s.(dp0
S'Text'
p1
S'waiting for my hawks to catch \xf0\x9f\x94\xa5 #nbaplayoffs'
p2
sS'Created At'
p3
S'2016-04-16 22:29:58'
p4
s.(dp0
S'Text'
p1
S'oh yeah!! #nbaplayoffs  https://t.co/aiad1td6zx'
p2
sS'Created At'
p3
S'2016-04-16 22:29:59'
p4
s.(dp0
S'Text'
p1
S'#igotthehawks as my team! who do you got? #nbaplayoffs\nhttps://t.co/oh6tqn5e0g'
p2
sS'Created At'
p3
S'2016-04-16 22:29:59'
p4
s.(dp0
S'Text'
p1
S'6914 new f0\\/\\/0wers https://t.co/f6wgahxcrl #nbaplayoffs,dwight howard,#cccc,james harden,patrick beverly,raptors,#lemonade,#irrita'
p2
sS'Created At'
p3
S'2016-04-16 22:30:02'
p4
s.(dp0
S'Text'
p1
S"game time let's go celtics #nbaplayoffs"
p2
sS'Created At'
p3
S'2016-04-16 22:30:07'
p4
s.(dp0
S'Text'
p1
S'2015-16 nba playoffs guide: matchups, schedules and tv info #nbaplayoffs https://t.co/jjalj2bety  \xf0\x9f\x98\x95\xf0\x9f\x92\xa9'
p2
sS'Created At'
p3
S'2016-04-16 22:30:07'
p4
s.(dp0
S'Text'
p1
S'#warriors take game 1 from the #rockets 104-78. curry had the game high 24 points! #nbaplayoffs #itsyoursportsweek'
p2
sS'Created At'
p3
S'2016-04-16 22:30:09'
p4
s.(dp0
S'Text'
p1
S"#starwars needs help from @themauryshow to find out who rey's parents are, hopefully they are alive\n#nhlplayoffs #nbaplayoffs #lemonade #tjd"
p2
sS'Created At'
p3
S'2016-04-16 22:30:09'
p4
s.(dp0
S'Text'
p1
S'1 down, 15 to go! #dubnation #warriorsground #gowarriors #strengthinnumbers #nbaplayoffs'
p2
sS'Created At'
p3
S'2016-04-16 22:30:10'
p4
s.(dp0
S'Text'
p1
S'#igotthewarriors as my team! who do you got? #nbaplayoffs https://t.co/a3pmzdctaf'
p2
sS'Created At'
p3
S'2016-04-16 22:30:11'
p4
s.(dp0
S'Text'
p1
S'#igotthewarriors as my team! who do you got? #nbaplayoffs https://t.co/cx0luvlmrm'
p2
sS'Created At'
p3
S'2016-04-16 22:30:12'
p4
s.(dp0
S'Text'
p1
S'#nbaplayoffs\ni literally have nothing else to say here\n#fuckblackpeople'
p2
sS'Created At'
p3
S'2016-04-16 22:30:12'
p4
s.(dp0
S'Text'
p1
S'#igottheceltics as my team! who do you got? #nbaplayoffs https://t.co/bvorlte4dz'
p2
sS'Created At'
p3
S'2016-04-16 22:30:12'
p4
s.(dp0
S'Text'
p1
S'#igottheceltics as my team! who do you got? #nbaplayoffs https://t.co/hdhl3ehpfs'
p2
sS'Created At'
p3
S'2016-04-16 22:30:13'
p4
s.(dp0
S'Text'
p1
S'#igotthehawks as my team! who do you got? #nbaplayoffs https://t.co/tb6axhvmjz'
p2
sS'Created At'
p3
S'2016-04-16 22:30:14'
p4
s.(dp0
S'Text'
p1
S'#igottheceltics as my team! who do you got? #nbaplayoffs https://t.co/rouaow4yve'
p2
sS'Created At'
p3
S'2016-04-16 22:30:14'
p4
s.(dp0
S'Text'
p1
S'#nbaplayoffs #ufctampa #irritatemein4words i want to win this game #crossyroad https://t.co/eibuokquut'
p2
sS'Created At'
p3
S'2016-04-16 22:30:16'
p4
s.(dp0
S'Text'
p1
S'#igotthewarriors as my team! who do you got? #nbaplayoffs https://t.co/ebopcczzjt'
p2
sS'Created At'
p3
S'2016-04-16 22:30:16'
p4
s.(dp0
S'Text'
p1
S"the #warriors shot a higher percentage on 3's (40.0%) than the #rockets shot on 2's (38.7%) #nbaplayoffs #houvsgsw #dubnation"
p2
sS'Created At'
p3
S'2016-04-16 22:30:23'
p4
s.(dp0
S'Text'
p1
S'#igotthewarriors as my team! who do you got? #nbaplayoffs\nhttps://t.co/pgzpjv4gkq'
p2
sS'Created At'
p3
S'2016-04-16 22:30:23'
p4
s.(dp0
S'Text'
p1
S'#igottheceltics as my team! who do you got? #nbaplayoffs https://t.co/guwhyyncdp'
p2
sS'Created At'
p3
S'2016-04-16 22:30:24'
p4
s.(dp0
S'Text'
p1
S'round 1 game 1\nwarriors 104-78 rockets\n\n#nbaplayoffs \n#warriorsvrockets'
p2
sS'Created At'
p3
S'2016-04-16 22:30:24'
p4
s.(dp0
S'Text'
p1
S'east: cle 4-1 det, tor 4-3 ind, mia 4-3 bos, west: gsw 4-1 hou, sas 4-1 mem, okc 4-2 dal, lac-por 3-4 ya da 4-3 #nbaplayoffs'
p2
sS'Created At'
p3
S'2016-04-16 22:30:25'
p4
s.(dp0
S'Text'
p1
S'world trends\n#amici15\n#thevoice\n#nbaplayoffs\n#\xd8\xb1\xd8\xa7\xd8\xad\xd9\x87_\xd8\xa7\xd9\x84\xd8\xa8\xd8\xa7\xd9\x84_\xd9\x81\n#onpc'
p2
sS'Created At'
p3
S'2016-04-16 22:30:25'
p4
s.(dp0
S'Text'
p1
S'goodmorning\n#nbaplayoffs'
p2
sS'Created At'
p3
S'2016-04-16 22:30:26'
p4
s.(dp0
S'Text'
p1
S'#igotthewarriors as my team! who do you got? #nbaplayoffs https://t.co/syjyosxohv'
p2
sS'Created At'
p3
S'2016-04-16 22:30:27'
p4
s.(dp0
S'Text'
p1
S'#igottheceltics as my team! who do you got? #nbaplayoffs https://t.co/mv6whi9nyn'
p2
sS'Created At'
p3
S'2016-04-16 22:30:28'
p4
s.(dp0
S'Text'
p1
S'#igotthewarriors as my team! who do you got? #nbaplayoffs https://t.co/xkylzgtbc0'
p2
sS'Created At'
p3
S'2016-04-16 22:30:29'
p4
s.(dp0
S'Text'
p1
S'what to say about that #houvsgsw game this afternoon? \xf0\x9f\x8f\x80\xf0\x9f\x98\x96 \xf0\x9f\x99\x8a\xf0\x9f\x99\x89\xf0\x9f\x99\x88 #nbaplayoffs #rockets'
p2
sS'Created At'
p3
S'2016-04-16 22:30:30'
p4
s.(dp0
S'Text'
p1
S'#igottheceltics as my team! who do you got? #nbaplayoffs https://t.co/t2rpdqfg5x'
p2
sS'Created At'
p3
S'2016-04-16 22:30:31'
p4
s.(dp0
S'Text'
p1
S'#igotthehawks as my team! who do you got? #nbaplayoffs https://t.co/dmvtmqpka8'
p2
sS'Created At'
p3
S'2016-04-16 22:30:33'
p4
s.(dp0
S'Text'
p1
S'coach bickerstaff taking the podium now on nba tv! #nbaplayoffs https://t.co/oepxtacmsi'
p2
sS'Created At'
p3
S'2016-04-16 22:30:34'
p4
s.(dp0
S'Text'
p1
S'4274 new f0\\/\\/0wers https://t.co/qzbtrdxrpu #nbaplayoffs,dwight howard,#cccc,james harden,patrick beverly,raptors,#lemonade,#irrita'
p2
sS'Created At'
p3
S'2016-04-16 22:30:36'
p4
s.(dp0
S'Text'
p1
S'rockets done messed up trying to start beef with curry and the warriors... just take your whoopin and go home... #nbaplayoffs'
p2
sS'Created At'
p3
S'2016-04-16 22:30:36'
p4
s.(dp0
S'Text'
p1
S'welcome to cannabeach mythbusters |https://t.co/fxxqjvnzbq #nbaplayoffs #ufctampa #cccc #lemonade #cannabis #strains #cannabislaws #weedlaws'
p2
sS'Created At'
p3
S'2016-04-16 22:30:38'
p4
s.(dp0
S'Text'
p1
S'steph curry (ankle) is questionable for game 2 on monday vs the rockets #nbaplayoffs'
p2
sS'Created At'
p3
S'2016-04-16 22:30:39'
p4
s.(dp0
S'Text'
p1
S'#igottheceltics as my team! who do you got? #nbaplayoffs https://t.co/mkmlqcjunt'
p2
sS'Created At'
p3
S'2016-04-16 22:30:40'
p4
s.(dp0
S'Text'
p1
S"#nbaplayoffs rockets know they don't stand a chance against the warriors!! im looking forward to the west conference finals spurs warriors"
p2
sS'Created At'
p3
S'2016-04-16 22:30:41'
p4
s.(dp0
S'Text'
p1
S'#igotthethunder as my team! who do you got? #nbaplayoffs\nhttps://t.co/mcbyrir6lb'
p2
sS'Created At'
p3
S'2016-04-16 22:30:42'
p4
s.(dp0
S'Text'
p1
S'#igottherockets as my team! who do you got? #nbaplayoffs\nhttps://t.co/cn2fgqzaro'
p2
sS'Created At'
p3
S'2016-04-16 22:30:45'
p4
s.(dp0
S'Text'
p1
S'good time for #nbaplayoffs and @barbershopmovie dads\ncaring is sharing #cancersurvivorship \nhttps://t.co/kplhqqodhc https://t.co/spidgipxsa'
p2
sS'Created At'
p3
S'2016-04-16 22:30:48'
p4
s.(dp0
S'Text'
p1
S'#goldenstate #warriorsground #tumblr soon. #strengthinnumbers #nbaplayoffs https://t.co/xamrcga7xg'
p2
sS'Created At'
p3
S'2016-04-16 22:30:52'
p4
s.(dp0
S'Text'
p1
S'#igotthethunder as my team! who do you got? #nbaplayoffs https://t.co/mq6ahptqnh'
p2
sS'Created At'
p3
S'2016-04-16 22:30:52'
p4
s.(dp0
S'Text'
p1
S'#igottheceltics as my team! who do you got? #nbaplayoffs\nhttps://t.co/p6fwv2mviz'
p2
sS'Created At'
p3
S'2016-04-16 22:30:54'
p4
s.(dp0
S'Text'
p1
S'#igottheceltics as my team! who do you got? #nbaplayoffs\nhttps://t.co/un5666rtfw'
p2
sS'Created At'
p3
S'2016-04-16 22:30:54'
p4
s.(dp0
S'Text'
p1
S'#rockets i feel your pain /sarcasm/.  #houstonrockets #rednationsinking https://t.co/uwzwum9pzl'
p2
sS'Created At'
p3
S'2016-04-16 22:30:54'
p4
s.(dp0
S'Text'
p1
S'#igotthewarriors as my team! who do you got? #nbaplayoffs https://t.co/4ylvnfzycv'
p2
sS'Created At'
p3
S'2016-04-16 22:30:55'
p4
s.(dp0
S'Text'
p1
S"i don't even know who is in the #nbaplayoffs let me see who i'm picking."
p2
sS'Created At'
p3
S'2016-04-16 22:30:56'
p4
s.(dp0
S'Text'
p1
S'celtics are going to win the series against the hawks #nbaplayoffs #greenrunsdeep \xe2\x98\x98'
p2
sS'Created At'
p3
S'2016-04-16 22:30:57'
p4
s.(dp0
S'Text'
p1
S'#igotthewarriors as my team! who do you got? #nbaplayoffs https://t.co/v00njlvlm7'
p2
sS'Created At'
p3
S'2016-04-16 22:30:57'
p4
s.(dp0
S'Text'
p1
S'match: rockets vs warriors \nresult: warriors won.\nbut @dwighthoward is trending.\n#nbaplayoffs'
p2
sS'Created At'
p3
S'2016-04-16 22:30:59'
p4
s.(dp0
S'Text'
p1
S'vote for #elissa plz  #nbaplayoffs\nhttps://t.co/kz0ngyl6kt'
p2
sS'Created At'
p3
S'2016-04-16 22:31:02'
p4
s.(dp0
S'Text'
p1
S'#igottheceltics as my team! who do you got? #nbaplayoffs \xf0\x9f\x8d\x80\xf0\x9f\x8f\x80\nhttps://t.co/fuefo6wk37'
p2
sS'Created At'
p3
S'2016-04-16 22:31:03'
p4
s.(dp0
S'Text'
p1
S'oh just let the rockets die. #nbaplayoffs'
p2
sS'Created At'
p3
S'2016-04-16 22:31:06'
p4
s.(dp0
S'Text'
p1
S'#igotthewarriors as my team! who do you got? #nbaplayoffs https://t.co/6ytqmf8lme'
p2
sS'Created At'
p3
S'2016-04-16 22:31:07'
p4
s.(dp0
S'Text'
p1
S'coach says @stephencurry30 is questionable for monday!! #nbaplayoffs'
p2
sS'Created At'
p3
S'2016-04-16 22:31:08'
p4
s.(dp0
S'Text'
p1
S"warriors figured out how to stop james harden.don't let him go left and don't reach in.could have told you that 5 years ago. #nbaplayoffs \xf0\x9f\x98\x92"
p2
sS'Created At'
p3
S'2016-04-16 22:31:11'
p4
s.(dp0
S'Text'
p1
S'#igotthethunder as my team! who do you got? #nbaplayoffs https://t.co/dnarap2t0v'
p2
sS'Created At'
p3
S'2016-04-16 22:31:12'
p4
s.(dp0
S'Text'
p1
S'#igottheceltics as my team! who do you got? #nbaplayoffs\nhttps://t.co/u4ay6efzzc'
p2
sS'Created At'
p3
S'2016-04-16 22:31:12'
p4
s.(dp0
S'Text'
p1
S'#tannercantescape #itsprettyclear \n#igotthethunder as my team! who do you got? \n#nbaplayoffs https://t.co/ijd7ffzuob'
p2
sS'Created At'
p3
S'2016-04-16 22:31:13'
p4
s.(dp0
S'Text'
p1
S'#igotthethunder as my team! who do you got? #nbaplayoffs https://t.co/lkrotvvir4'
p2
sS'Created At'
p3
S'2016-04-16 22:31:13'
p4
s.(dp0
S'Text'
p1
S'james harden was an embarrassment today. so was dwight howard. the rockets basically folded without a putting up a fight. #nbaplayoffs'
p2
sS'Created At'
p3
S'2016-04-16 22:31:15'
p4
s.(dp0
S'Text'
p1
S'#nbaplayoffs cleveland #cavaliers vs. detroit pistons nba playoffs 2016: how ... https://t.co/84zrsvclvh https://t.co/fuz9ukrccj'
p2
sS'Created At'
p3
S'2016-04-16 22:31:19'
p4
s.(dp0
S'Text'
p1
S'#nbaplayoffs east: cle 4-1 det, tor 4-3 ind, mia 4-2 cha, atl 4-3 bos, west: gsw 4-1 hou, sas 4-1 mem, okc 4-2 dal, lac-por 3-4 ya da 4-3'
p2
sS'Created At'
p3
S'2016-04-16 22:31:19'
p4
s.(dp0
S'Text'
p1
S'#nbaplayoffs begin \xf0\x9f\x8f\x80'
p2
sS'Created At'
p3
S'2016-04-16 22:31:20'
p4
s.(dp0
S'Text'
p1
S'only 19 min. played it is @stephencurry30 . #dubnation #nbaplayoffs https://t.co/geuatt0sl8'
p2
sS'Created At'
p3
S'2016-04-16 22:31:21'
p4
s.(dp0
S'Text'
p1
S'i like \xf0\x9f\x92\xaa #nbaplayoffs'
p2
sS'Created At'
p3
S'2016-04-16 22:31:26'
p4
s.(dp0
S'Text'
p1
S'nigga dont even let his team get down the court  https://t.co/2akufmf3tx'
p2
sS'Created At'
p3
S'2016-04-16 22:31:26'
p4
s.(dp0
S'Text'
p1
S'#igotthemavs as my team! who do you got? #nbaplayoffs https://t.co/nqjfcxwtuo'
p2
sS'Created At'
p3
S'2016-04-16 22:31:26'
p4
s.(dp0
S'Text'
p1
S'#igotthethunder as my team! who do you got? #nbaplayoffs https://t.co/v8vvmftxxr'
p2
sS'Created At'
p3
S'2016-04-16 22:31:26'
p4
s.(dp0
S'Text'
p1
S"we're pumped the raptors are in #nbaplayoffs. what basketball movie won you over? https://t.co/ftwkyscwc1"
p2
sS'Created At'
p3
S'2016-04-16 22:31:26'
p4
s.(dp0
S'Text'
p1
S'start day with a great #workout ...then played some #hoops...now time for some #nbaplayoffs ...perfect...'
p2
sS'Created At'
p3
S'2016-04-16 22:31:29'
p4
s.(dp0
S'Text'
p1
S'pacers steal the first and send raptors fans into a state of d\xc3\xa9j\xc3\xa0 vu and panic. then warriors do what they do best win easy #nbaplayoffs'
p2
sS'Created At'
p3
S'2016-04-16 22:31:29'
p4
s.(dp0
S'Text'
p1
S'#igottheceltics as my team! who do you got? #nbaplayoffs https://t.co/z3lkedgy0u'
p2
sS'Created At'
p3
S'2016-04-16 22:31:30'
p4
s.(dp0
S'Text'
p1
S'#igotthethunder as my team! who do you got? #nbaplayoffs\nhttps://t.co/kiqbigaj92'
p2
sS'Created At'
p3
S'2016-04-16 22:31:33'
p4
s.(dp0
S'Text'
p1
S'damn i feel for all of james harden fans #nbaplayoffs'
p2
sS'Created At'
p3
S'2016-04-16 22:31:34'
p4
s.(dp0
S'Text'
p1
S'9467 new f0\\/\\/0wers https://t.co/krpcaszrcc #nbaplayoffs,dwight howard,#cccc,james harden,patrick beverly,raptors,#lemonade,#irrita'
p2
sS'Created At'
p3
S'2016-04-16 22:31:37'
p4
s.(dp0
S'Text'
p1
S'#igottheceltics as my team! who do you got? #nbaplayoffs https://t.co/2xls0vkqtq'
p2
sS'Created At'
p3
S'2016-04-16 22:31:38'
p4
s.(dp0
S'Text'
p1
S'getting ready for this @celtics vs. @atlhawks game! #nbaplayoffs #igottheceltics #celticsnation\xe2\x98\x98'
p2
sS'Created At'
p3
S'2016-04-16 22:31:38'
p4
s.(dp0
S'Text'
p1
S'9883 new f0\\/\\/0wers https://t.co/b1fjvl2z4o #nbaplayoffs,dwight howard,#cccc,james harden,patrick beverly,raptors,#lemonade,#irrita'
p2
sS'Created At'
p3
S'2016-04-16 22:31:39'
p4
s.(dp0
S'Text'
p1
S'https://t.co/tysrssptgy  instagram: can it please be 7!! #bringonthehawks #goceltics #nbaplayoffs #typicalbathroomselfie'
p2
sS'Created At'
p3
S'2016-04-16 22:31:41'
p4
s.(dp0
S'Text'
p1
S'#igotthethunder as my team! who do you got? #nbaplayoffs https://t.co/fpozyhtb4c'
p2
sS'Created At'
p3
S'2016-04-16 22:31:42'
p4
s.(dp0
S'Text'
p1
S'#igotthethunder as my team! who do you got? #nbaplayoffs\nhttps://t.co/jlkzrz6uc8'
p2
sS'Created At'
p3
S'2016-04-16 22:31:47'
p4
s.(dp0
S'Text'
p1
S'#igotthethunder as my team! who do you got? #nbaplayoffs https://t.co/auo1c4tjy4'
p2
sS'Created At'
p3
S'2016-04-16 22:31:49'
p4
s.(dp0
S'Text'
p1
S'#igotthewarriors as my team! who do you got? #nbaplayoffs https://t.co/njju8i2joi'
p2
sS'Created At'
p3
S'2016-04-16 22:31:51'
p4
s.(dp0
S'Text'
p1
S'the summary of the @warriors defense: \xf0\x9f\x98\x8c\xf0\x9f\x98\x8c\xf0\x9f\x98\x8c #dubnation #nbaplayoffs'
p2
sS'Created At'
p3
S'2016-04-16 22:31:57'
p4
s.(dp0
S'Text'
p1
S'love @money23green for that #enforcer move during the game #nbaplayoffs \xf0\x9f\x91\x8a\xf0\x9f\x8f\xbd\xf0\x9f\x98\x98\xf0\x9f\x8f\x80\xf0\x9f\x91\x8c\xf0\x9f\x8f\xbd'
p2
sS'Created At'
p3
S'2016-04-16 22:31:58'
p4
s.(dp0
S'Text'
p1
S'#nbaplayoffs https://t.co/euhejihznw the best adult dating site!'
p2
sS'Created At'
p3
S'2016-04-16 22:31:58'
p4
s.(dp0
S'Text'
p1
S"nba playoffs are back! can't wait to go the game tomorrow!! \xf0\x9f\x8f\x80 #goclippers #nbaplayoffs #basketball #clippernation #\xe2\x80\xa6 https://t.co/jvvorfovld"
p2
sS'Created At'
p3
S'2016-04-16 22:31:58'
p4
s.(dp0
S'Text'
p1
S'when you tell khole if you win she gotta let you smash and you choke #nbaplayoffs https://t.co/n7nr2gmbhp'
p2
sS'Created At'
p3
S'2016-04-16 22:32:00'
p4
s.(dp0
S'Text'
p1
S"let's go #hornets #buzzcity in effect! https://t.co/qjjbdgekj9"
p2
sS'Created At'
p3
S'2016-04-16 22:32:02'
p4
s.(dp0
S'Text'
p1
S'4462 new f0\\/\\/0wers https://t.co/gugqtbmpiq #nbaplayoffs,dwight howard,#cccc,james harden,patrick beverly,raptors,#lemonade,#irrita'
p2
sS'Created At'
p3
S'2016-04-16 22:32:02'
p4
s.(dp0
S'Text'
p1
S'paul george got him one today #nbaplayoffs'
p2
sS'Created At'
p3
S'2016-04-16 22:32:04'
p4
s.(dp0
S'Text'
p1
S'#igottheceltics as my team! who do you got? #nbaplayoffs https://t.co/ystiny353c'
p2
sS'Created At'
p3
S'2016-04-16 22:32:04'
p4
s.(dp0
S'Text'
p1
S"the utah jazz would've probably put up a better fight than the houston rockets #nbaplayoffs #warriorsvrockets"
p2
sS'Created At'
p3
S'2016-04-16 22:32:07'
p4
s.(dp0
S'Text'
p1
S'lmfaooooooooo true  https://t.co/yjd5nzgerg'
p2
sS'Created At'
p3
S'2016-04-16 22:32:07'
p4
s.(dp0
S'Text'
p1
S'#nbaplayoffs brand new ale** **man                    21/11/2015 girls air #jordan 5 gs  https://t.co/qqicz4xn0q https://t.co/zay5608ncm'
p2
sS'Created At'
p3
S'2016-04-16 22:32:09'
p4
s.(dp0
S'Text'
p1
S'ugh who still plays #nbaplayoffs'
p2
sS'Created At'
p3
S'2016-04-16 22:32:11'
p4
s.(dp0
S'Text'
p1
S'this quote is gold worth and more than a fact! #nbaplayoffs #basketballneverstops #hardworkpaysoff #defense https://t.co/4qddpectii'
p2
sS'Created At'
p3
S'2016-04-16 22:32:11'
p4
s.(dp0
S'Text'
p1
S"u'll love this! @donaldfturner @pppatticake @ronc99 @camelotgypsy @goodtwitty @godandthebear @truthglow @ireneberns  https://t.co/egrvscfokw"
p2
sS'Created At'
p3
S'2016-04-16 22:32:14'
p4
s.(dp0
S'Text'
p1
S'patrick bevereley looks like django still chained #nbaplayoffs\xe2\x80\xa6 https://t.co/2vracqaze7'
p2
sS'Created At'
p3
S'2016-04-16 22:32:14'
p4
s.(dp0
S'Text'
p1
S'@stephencurry30 and the @warriors are arguably the greatest team in all of team sports history #nbaplayoffs #champions'
p2
sS'Created At'
p3
S'2016-04-16 22:32:17'
p4
s.(dp0
S'Text'
p1
S'the #nbaplayoffs are underway and we have our predictions and end of the season awards, tap the link in our bio #ca\xe2\x80\xa6 https://t.co/aybj4tqiqb'
p2
sS'Created At'
p3
S'2016-04-16 22:32:17'
p4
s.(dp0
S'Text'
p1
S'les warriors vont dead ca #nbaplayoffs'
p2
sS'Created At'
p3
S'2016-04-16 22:32:19'
p4
s.(dp0
S'Text'
p1
S"#thevoice\n#nbaplayoffs\n#\xef\xbb\xa3\xef\xba\x8e_\xef\xbb\x93\xef\xbb\xb2_\xef\xbb\xa3\xef\xbb\xa6_\xef\xba\xa3\xef\xba\x92\xef\xbb\xb4\xef\xba\x92\xef\xbb\xb2 \n#ibtissamtiskat\nlisten to this amazing song  you won't regret it\xf0\x9f\x8e\xb5 \xf0\x9f\x8e\xb6\xf0\x9f\x8e\xa4 \n \xf0\x9f\x91\x87\nhttps://t.co/tofd9aslc7"
p2
sS'Created At'
p3
S'2016-04-16 22:32:19'
p4
s.(dp0
S'Text'
p1
S'so this is what can happen #cavs fans @montetjwitter11 #nbaplayoffs https://t.co/3kw1ibqmvw'
p2
sS'Created At'
p3
S'2016-04-16 22:32:25'
p4
s.(dp0
S'Text'
p1
S"usually i'm ok with the atlanta hawks. not today. \xe2\x98\x98#goceltics #nbaplayoffs"
p2
sS'Created At'
p3
S'2016-04-16 22:32:25'
p4
s.(dp0
S'Text'
p1
S'waiting for celtics vs hawks\xf0\x9f\x99\x87 #nbaplayoffs'
p2
sS'Created At'
p3
S'2016-04-16 22:32:25'
p4
s.(dp0
S'Text'
p1
S'i like going for the under dog #igottherockets as my team! who do you got? #nbaplayoffs https://t.co/6nkqsz0kyd'
p2
sS'Created At'
p3
S'2016-04-16 22:32:25'
p4
s.(dp0
S'Text'
p1
S'https://t.co/g149img8w1\r don\xe2\x80\x99t let #vitiligo #destroy your #self esteem\r \r \r #health food #recipes #nbaplayoffs https://t.co/ekbtvuchaz'
p2
sS'Created At'
p3
S'2016-04-16 22:32:25'
p4
s.(dp0
S'Text'
p1
S"am i actually going watch a basketball game today? yes i am. my first year back into basketball. it's been a good one #celtics #nbaplayoffs"
p2
sS'Created At'
p3
S'2016-04-16 22:32:26'
p4
s.(dp0
S'Text'
p1
S'1821 new f0\\/\\/0wers https://t.co/kwxjfhld9t #nbaplayoffs,dwight howard,#cccc,james harden,patrick beverly,raptors,#lemonade,#irrita'
p2
sS'Created At'
p3
S'2016-04-16 22:32:30'
p4
s.(dp0
S'Text'
p1
S"pacers covered rockets didn't. 1-1 so far with one game pending and still looking for first live action or 2ndhalf opportunity #nbaplayoffs"
p2
sS'Created At'
p3
S'2016-04-16 22:32:30'
p4
s.(dp0
S'Text'
p1
S'#igotthehawks as my team! who do you got? #nbaplayoffs https://t.co/gxi6ia0szs'
p2
sS'Created At'
p3
S'2016-04-16 22:32:30'
p4
s.(dp0
S'Text'
p1
S'@gswfastbreak #nbaplayoffs- hehehe no ft for harden"the beard" n\'1st game win by 24 #letsgowarriors'
p2
sS'Created At'
p3
S'2016-04-16 22:32:30'
p4
s.(dp0
S'Text'
p1
S'i am mother fucking ready @celtics #letsgoceltics #nbaplayoffs'
p2
sS'Created At'
p3
S'2016-04-16 22:32:34'
p4
s.(dp0
S'Text'
p1
S'but remember @charliemurphy said @prince beat him and @eddiemurphy in basketball?! \xf0\x9f\x98\x82 game, #warriors!\xf0\x9f\x92\x99\xf0\x9f\x92\x9b\xf0\x9f\x8f\x80 https://t.co/0lw3nfvrww'
p2
sS'Created At'
p3
S'2016-04-16 22:32:35'
p4
s.(dp0
S'Text'
p1
S'rest steph. we can last at least a game in this series without him. #nbaplayoffs #warriors #letsgowarriors #dubnation'
p2
sS'Created At'
p3
S'2016-04-16 22:32:36'
p4
s.(dp0
S'Text'
p1
S'#nbaplayoffs houston got their ass beat! #kingcoopaj99 #bgol #lifted'
p2
sS'Created At'
p3
S'2016-04-16 22:32:37'
p4
s.(dp0
S'Text'
p1
S'like sir charles said months ago "you gotta touch him up" when asked about how to defend @stephencurry30 @nbaontnt #nbaplayoffs #gswvhou'
p2
sS'Created At'
p3
S'2016-04-16 22:32:37'
p4
s.(dp0
S'Text'
p1
S'#igotthewarriors as my team! who do you got? #nbaplayoffs https://t.co/3v6hasok8n'
p2
sS'Created At'
p3
S'2016-04-16 22:32:37'
p4
s.(dp0
S'Text'
p1
S'#igottheceltics as my team! who do you got? #nbaplayoffs https://t.co/otx0pmqtcz'
p2
sS'Created At'
p3
S'2016-04-16 22:32:39'
p4
s.(dp0
S'Text'
p1
S'#igotthewarriors as my team! who do you got? #nbaplayoffs https://t.co/oobf7h9bge'
p2
sS'Created At'
p3
S'2016-04-16 22:32:40'
p4
s.(dp0
S'Text'
p1
S'#igottheceltics as my team! who do you got? #nbaplayoffs https://t.co/xthlkrzlia'
p2
sS'Created At'
p3
S'2016-04-16 22:32:40'
p4
s.(dp0
S'Text'
p1
S'#igotthethunder as my team! who do you got? #nbaplayoffs https://t.co/cgbx0ao4ap'
p2
sS'Created At'
p3
S'2016-04-16 22:32:42'
p4
s.(dp0
S'Text'
p1
S'#igotthewarriors as my team! who do you got? #nbaplayoffs https://t.co/ckfag1aumk'
p2
sS'Created At'
p3
S'2016-04-16 22:32:42'
p4
s.(dp0
S'Text'
p1
S'goodmorning! yeah its #nbaplayoffs'
p2
sS'Created At'
p3
S'2016-04-16 22:32:44'
p4
s.(dp0
S'Text'
p1
S'#igottheceltics as my team! who do you got? #nbaplayoffs https://t.co/vdayuzkihb'
p2
sS'Created At'
p3
S'2016-04-16 22:32:46'
p4
s.(dp0
S'Text'
p1
S'this will be a clean sweep for the warriors. 1-0 #dubnation #nbaplayoffs #strengthinnumbers'
p2
sS'Created At'
p3
S'2016-04-16 22:32:48'
p4
s.(dp0
S'Text'
p1
S'#nbaplayoffs #warriors beat the #rockets 104-78 #warriors lead series 1-0 fuck :-\xc3\x97 https://t.co/qai4omrh3j'
p2
sS'Created At'
p3
S'2016-04-16 22:32:48'
p4
s.(dp0
S'Text'
p1
S'#igotthemavs as my team! who do you got? #nbaplayoffs https://t.co/93bifta9qp'
p2
sS'Created At'
p3
S'2016-04-16 22:32:50'
p4
s.(dp0
S'Text'
p1
S'#igottheceltics as my team! who do you got? #nbaplayoffs https://t.co/efglevzsxi'
p2
sS'Created At'
p3
S'2016-04-16 22:32:50'
p4
s.(dp0
S'Text'
p1
S'the @warriors are on a damn mission. #nbaplayoffs'
p2
sS'Created At'
p3
S'2016-04-16 22:32:50'
p4
s.(dp0
S'Text'
p1
S'hey 99 #nbaplayoffs yogurt 9d'
p2
sS'Created At'
p3
S'2016-04-16 22:32:52'
p4
s.(dp0
S'Text'
p1
S'bring home the trophy @hornets #buzzcity  https://t.co/fc2gemvs0r'
p2
sS'Created At'
p3
S'2016-04-16 22:32:53'
p4
s.(dp0
S'Text'
p1
S"getting ready for this @celtics #bosatatl #nbaplayoffs game \xf0\x9f\x98\x8e\xf0\x9f\x91\x8d\xf0\x9f\x8f\xbd\xf0\x9f\x8f\x80 hope it's another classic like when these 2 played https://t.co/klmmz1pthl"
p2
sS'Created At'
p3
S'2016-04-16 22:32:53'
p4
s.(dp0
S'Text'
p1
S'lets get ready to rumble..\xf0\x9f\x8f\x80\xf0\x9f\x8f\x80 #nbaplayoffs'
p2
sS'Created At'
p3
S'2016-04-16 22:32:53'
p4
s.(dp0
S'Text'
p1
S'#igotthethunder as my team! who do you got? #nbaplayoffs https://t.co/6a0g7yrv5m'
p2
sS'Created At'
p3
S'2016-04-16 22:32:54'
p4
s.(dp0
S'Text'
p1
S'nba playoffs 2016\n\nhttps://t.co/v271wkhpmp\n\n#nbaplayoffs'
p2
sS'Created At'
p3
S'2016-04-16 22:32:56'
p4
s.(dp0
S'Text'
p1
S'#igotthethunder as my team! who do you got? #nbaplayoffs https://t.co/flls73hrqd @okcthunder \n#thunderup \xf0\x9f\x92\x99\xe2\x9a\xa1\xef\xb8\x8f\xf0\x9f\x8f\x80'
p2
sS'Created At'
p3
S'2016-04-16 22:32:56'
p4
s.(dp0
S'Text'
p1
S'@stanvangundynot looks like he sells jars of rusty nails at a flea market. #nbaplayoffs'
p2
sS'Created At'
p3
S'2016-04-16 22:32:57'
p4
s.(dp0
S'Text'
p1
S'tt usa 02:32\n1.#nbaplayoffs\n2.dwight howard\n3.james harden\n4.#ufctampa\n5.paul george\n6.#cccc\n7.patrick beverly\n8.#irritatemein4words'
p2
sS'Created At'
p3
S'2016-04-16 22:32:59'
p4
s.(dp0
S'Text'
p1
S'#igottheceltics as my team! who do you got? #nbaplayoffs https://t.co/7xiri6c9fb'
p2
sS'Created At'
p3
S'2016-04-16 22:32:59'
p4
s.(dp0
S'Text'
p1
S'kickstart ya head. #nbaplayoffs #recordstoreday #rsd16'
p2
sS'Created At'
p3
S'2016-04-16 22:33:00'
p4
s.(dp0
S'Text'
p1
S'warriors take 1-0 lead on the rockets after 104-78 #nbaplayoffs'
p2
sS'Created At'
p3
S'2016-04-16 22:33:00'
p4
s.(dp0
S'Text'
p1
S"#nbaplayoffs \xe2\x9c\xa81st\xe2\x9c\xa8round bl\xf0\x9f\x98\x9dw out.\n                    \xf0\x9f\x92\x9bon 2the next\xf0\x9f\x92\x99 \n   \xf0\x9f\x8f\x86 \xf0\x9f\x92\x9b\xf0\x9f\x92\x99 #dubnation #gsw \xf0\x9f\x92\x9b\xf0\x9f\x92\x99 \xf0\x9f\x8f\x86\n                 \xf0\x9f\x91\x89\xf0\x9f\x92\x8d\xf0\x9f\x91\x88 wait'n 4you"
p2
sS'Created At'
p3
S'2016-04-16 22:33:02'
p4
s.(dp0
S'Text'
p1
S'#nbaplayoffs #timberwolves wolves coaching job will be coveted one https://t.co/xrllc8zzru https://t.co/vogwvb0try'
p2
sS'Created At'
p3
S'2016-04-16 22:33:03'
p4
s.(dp0
S'Text'
p1
S'westbrook being westbrook #thunder #nbaplayoffs https://t.co/vgq5hphjwg'
p2
sS'Created At'
p3
S'2016-04-16 22:33:05'
p4
s.(dp0
S'Text'
p1
S'#igotthethunder as my team! who do you got? #nbaplayoffs https://t.co/lro2zdy3em'
p2
sS'Created At'
p3
S'2016-04-16 22:33:09'
p4
s.(dp0
S'Text'
p1
S'#igotthewarriors as my team! who do you got? #nbaplayoffs https://t.co/l17ehoyqor'
p2
sS'Created At'
p3
S'2016-04-16 22:33:11'
p4
s.(dp0
S'Text'
p1
S'https://t.co/ibmc4dke2f #best #collection in one place #nbaplayoffs'
p2
sS'Created At'
p3
S'2016-04-16 22:33:13'
p4
s.(dp0
S'Text'
p1
S'come on  https://t.co/fqunp0gaiz'
p2
sS'Created At'
p3
S'2016-04-16 22:33:15'
p4
s.(dp0
S'Text'
p1
S'\xf0\x9f\x91\x80watch\xf0\x9f\x91\x80\xc2\xa0 #artbychey\xc2\xa0\xf0\x9f\x8e\xa8 videos\xf0\x9f\x8e\xac https://t.co/urnpwctdjv\n#nbaplayoffs'
p2
sS'Created At'
p3
S'2016-04-16 22:33:15'
p4
s.(dp0
S'Text'
p1
S'celtics in 7 https://t.co/njxkjddzrf'
p2
sS'Created At'
p3
S'2016-04-16 22:33:16'
p4
s.(dp0
S'Text'
p1
S'@cardinals_book #nbaplayoffs #nbaextra #ufctampa #ufconfox19 nope, just images that stick in the mind like thorns https://t.co/qpfv171cer'
p2
sS'Created At'
p3
S'2016-04-16 22:33:18'
p4
s.(dp0
S'Text'
p1
S'#igottheceltics as my team! who do you got? #nbaplayoffs\nhttps://t.co/zew5u4zz5a'
p2
sS'Created At'
p3
S'2016-04-16 22:33:20'
p4
s.(dp0
S'Text'
p1
S'#igottheceltics as my team! who do you got? #nbaplayoffs https://t.co/gvopf3twwi'
p2
sS'Created At'
p3
S'2016-04-16 22:33:20'
p4
s.(dp0
S'Text'
p1
S'#igotthehawks as my team! who do you got? #nbaplayoffs https://t.co/ybhbhyg7oh'
p2
sS'Created At'
p3
S'2016-04-16 22:33:22'
p4
s.(dp0
S'Text'
p1
S'\xf0\x9f\x8d\x80 &amp; \xf0\x9f\x95\x8a next \xf0\x9f\x98\x9d #nbaplayoffs'
p2
sS'Created At'
p3
S'2016-04-16 22:33:23'
p4
s.(dp0
S'Text'
p1
S"i'd love to see deandre n draymond fight  https://t.co/w4a4bk7zuc"
p2
sS'Created At'
p3
S'2016-04-16 22:33:23'
p4
s.(dp0
S'Text'
p1
S'#igotthethunder as my team! who do you got? #nbaplayoffs https://t.co/ebud0eozoe'
p2
sS'Created At'
p3
S'2016-04-16 22:33:25'
p4
s.(dp0
S'Text'
p1
S'savagery  https://t.co/wgdmdnbzlk'
p2
sS'Created At'
p3
S'2016-04-16 22:33:25'
p4
s.(dp0
S'Text'
p1
S'#igotthewarriors as my team! who do you got? #nbaplayoffs https://t.co/pg9nxjdjhq'
p2
sS'Created At'
p3
S'2016-04-16 22:33:27'
p4
s.(dp0
S'Text'
p1
S'#igottheceltics as my team! who do you got? #nbaplayoffs https://t.co/kuxmgsns3p'
p2
sS'Created At'
p3
S'2016-04-16 22:33:28'
p4
s.(dp0
S'Text'
p1
S'#igottheceltics as my team! who do you got? #nbaplayoffs https://t.co/v0ozdlmp0c'
p2
sS'Created At'
p3
S'2016-04-16 22:33:31'
p4
s.(dp0
S'Text'
p1
S'#igottheceltics as my team! who do you got? #nbaplayoffs https://t.co/v88duxqxme'
p2
sS'Created At'
p3
S'2016-04-16 22:33:32'
p4
s.(dp0
S'Text'
p1
S'#igottheceltics as my team! who do you got? #nbaplayoffs https://t.co/739kj4lakr'
p2
sS'Created At'
p3
S'2016-04-16 22:33:32'
p4
s.(dp0
S'Text'
p1
S'#igotthewarriors as my team! who do you got? #nbaplayoffs https://t.co/n7qupi6vst'
p2
sS'Created At'
p3
S'2016-04-16 22:33:35'
p4
s.(dp0
S'Text'
p1
S"i would take charles barkley's golf swing at center over dwight howard. #nbaplayoffs"
p2
sS'Created At'
p3
S'2016-04-16 22:33:36'
p4
s.(dp0
S'Text'
p1
S'#igotthethunder as my team! who do you got? #nbaplayoffs https://t.co/4mhw384lud'
p2
sS'Created At'
p3
S'2016-04-16 22:33:37'
p4
s.(dp0
S'Text'
p1
S'#igotthewarriors as my team! who do you got? #nbaplayoffs https://t.co/i8mp1aieig'
p2
sS'Created At'
p3
S'2016-04-16 22:33:37'
p4
s.(dp0
S'Text'
p1
S'3902 new f0\\/\\/0wers https://t.co/5dbqr09i09 #nbaplayoffs,dwight howard,#cccc,james harden,patrick beverly,raptors,#lemonade,#irrita'
p2
sS'Created At'
p3
S'2016-04-16 22:33:39'
p4
s.(dp0
S'Text'
p1
S'#igotthehawks as my team! who do you got? #nbaplayoffs\nhttps://t.co/saieedwkq5'
p2
sS'Created At'
p3
S'2016-04-16 22:33:40'
p4
s.(dp0
S'Text'
p1
S'russ arrives like only he can \xf0\x9f\x98\x8e #nbastyle #nbaplayoffs #nbavine @okcthunder https://t.co/io4vsac1ba'
p2
sS'Created At'
p3
S'2016-04-16 22:33:42'
p4
s.(dp0
S'Text'
p1
S'#nbaplayoffs you are so lucky...we have to see #bravoroula'
p2
sS'Created At'
p3
S'2016-04-16 22:33:42'
p4
s.(dp0
S'Text'
p1
S"let's go @celtics #nbaplayoffs \xf0\x9f\x99\x8c\xf0\x9f\x8f\xbd\xf0\x9f\x8f\x80"
p2
sS'Created At'
p3
S'2016-04-16 22:33:43'
p4
s.(dp0
S'Text'
p1
S'damn..golden states worst nightmare. curry hurtin. wont matter vs houston, hopefully it all good next round!! #nbaplayoffs'
p2
sS'Created At'
p3
S'2016-04-16 22:33:43'
p4
s.(dp0
S'Text'
p1
S'#igotthethunder as my team! who do you got? #nbaplayoffs https://t.co/rcrcqr8iuo'
p2
sS'Created At'
p3
S'2016-04-16 22:33:44'
p4
s.(dp0
S'Text'
p1
S'3/ but wht @stephancurry30 excels at is feed the stat &amp; data hungry geeks! perfect fit for a valley team! #gsw #nbaplayoffs'
p2
sS'Created At'
p3
S'2016-04-16 22:33:44'
p4
s.(dp0
S'Text'
p1
S'#igotthehawks as my team! who do you got? #nbaplayoffs https://t.co/eogxzthehz'
p2
sS'Created At'
p3
S'2016-04-16 22:33:44'
p4
s.(dp0
S'Text'
p1
S'4/ being in the valley or a long time #gsw fan is not a precedence to like &amp; support this team. #nbaplayoffs @stephancurry30'
p2
sS'Created At'
p3
S'2016-04-16 22:33:44'
p4
s.(dp0
S'Text'
p1
S'#igotthemavs as my team! who do you got? #nbaplayoffs\nhttps://t.co/wqcwhor4tc'
p2
sS'Created At'
p3
S'2016-04-16 22:33:45'
p4
s.(dp0
S'Text'
p1
S'stephen curry fights patrick beverley - warriors vs rockets  https://t.co/k6spln3yus #nbaplayoffs'
p2
sS'Created At'
p3
S'2016-04-16 22:33:45'
p4
s.(dp0
S'Text'
p1
S'3605 new f0\\/\\/0wers https://t.co/n2vpjkhfvd #nbaplayoffs,dwight howard,#cccc,james harden,patrick beverly,raptors,#lemonade,#irrita'
p2
sS'Created At'
p3
S'2016-04-16 22:33:45'
p4
s.(dp0
S'Text'
p1
S'#igottherockets as my team! who do you got? #nbaplayoffs https://t.co/ex3snkavqd'
p2
sS'Created At'
p3
S'2016-04-16 22:33:45'
p4
s.(dp0
S'Text'
p1
S'stephen curry fights patrick beverley - warriors vs rockets  https://t.co/8yaeogvs0k #nbaplayoffs'
p2
sS'Created At'
p3
S'2016-04-16 22:33:45'
p4
s.(dp0
S'Text'
p1
S'stephen curry fights patrick beverley - warriors vs rockets  https://t.co/lvucz00seh #nbaplayoffs'
p2
sS'Created At'
p3
S'2016-04-16 22:33:46'
p4
s.(dp0
S'Text'
p1
S'stephen curry fights patrick beverley - warriors vs rockets  https://t.co/smsbg2q6gf #nbaplayoffs'
p2
sS'Created At'
p3
S'2016-04-16 22:33:46'
p4
s.(dp0
S'Text'
p1
S'stephen curry fights patrick beverley - warriors vs rockets  https://t.co/gjrvkcixar #nbaplayoffs'
p2
sS'Created At'
p3
S'2016-04-16 22:33:46'
p4
s.(dp0
S'Text'
p1
S'there you go, curry is questionable for game 2 #nbaplayoffs'
p2
sS'Created At'
p3
S'2016-04-16 22:33:48'
p4
s.(dp0
S'Text'
p1
S'#igottheceltics as my team! who do you got? #nbaplayoffs https://t.co/nimwuz1gl1'
p2
sS'Created At'
p3
S'2016-04-16 22:33:49'
p4
s.(dp0
S'Text'
p1
S'#igotthewarriors as my team! who do you got? #nbaplayoffs https://t.co/zac0rs850g'
p2
sS'Created At'
p3
S'2016-04-16 22:33:50'
p4
s.(dp0
S'Text'
p1
S'all day everyday #igottheceltics as my team! who do you got? #nbaplayoffs https://t.co/2isfwhsczn'
p2
sS'Created At'
p3
S'2016-04-16 22:33:53'
p4
s.(dp0
S'Text'
p1
S'how the hell did dwight howard missed that dunk #nbaplayoffs \xf0\x9f\x98\x82'
p2
sS'Created At'
p3
S'2016-04-16 22:34:00'
p4
s.(dp0
S'Text'
p1
S'let\'s begin #nbaplayoffs w/ an epigraph "talent hits a target no one else can hit;genius hits a target no one else can see" #inbradwetrust'
p2
sS'Created At'
p3
S'2016-04-16 22:34:01'
p4
s.(dp0
S'Text'
p1
S"did @paulpierce34 join the pacers when the raptors weren't looking? #nbaplayoffs #raptors #notagain #tsn"
p2
sS'Created At'
p3
S'2016-04-16 22:34:01'
p4
s.(dp0
S'Text'
p1
S'#igottheceltics as my team! who do you got? #nbaplayoffs\nhttps://t.co/lwcdmfldap'
p2
sS'Created At'
p3
S'2016-04-16 22:34:02'
p4
s.(dp0
S'Text'
p1
S'#igottheceltics as my team! who do you got? #nbaplayoffs https://t.co/ymtlngpq6c'
p2
sS'Created At'
p3
S'2016-04-16 22:34:04'
p4
s.(dp0
S'Text'
p1
S'omg...... rt @nba: russ arrives like only he can \xf0\x9f\x98\x8e #nbastyle #nbaplayoffs #nbavine @okcthunder https://t.co/uwj7beheeg'
p2
sS'Created At'
p3
S'2016-04-16 22:34:07'
p4
s.(dp0
S'Text'
p1
S"lol what's going on? https://t.co/0hnbha7pje"
p2
sS'Created At'
p3
S'2016-04-16 22:34:10'
p4
s.(dp0
S'Text'
p1
S'when you on your way 2 watch #junglebook while representing  @dallasmavs before game 1 of the #nbaplayoffs tonight! https://t.co/pt0uasche6'
p2
sS'Created At'
p3
S'2016-04-16 22:34:11'
p4
s.(dp0
S'Text'
p1
S'i swear post-game reporters ask some of the dumbest most common sense questions you will ever hear #nbaplayoffs'
p2
sS'Created At'
p3
S'2016-04-16 22:34:14'
p4
s.(dp0
S'Text'
p1
S'#dubnation is #oaklandish! look fwd to our #warriors #winning #15more straight games! we got these #nbaplayoffs.  https://t.co/r5yfbdpyzs'
p2
sS'Created At'
p3
S'2016-04-16 22:34:14'
p4
s.(dp0
S'Text'
p1
S'#igottheceltics as my team! who do you got? #nbaplayoffs https://t.co/xvuwomdqry'
p2
sS'Created At'
p3
S'2016-04-16 22:34:15'
p4
s.(dp0
S'Text'
p1
S"only game i'm watching for certain! \xe2\x98\x9d\xf0\x9f\x8f\xbe\xef\xb8\x8f#thunderup https://t.co/pkhtshs7hm"
p2
sS'Created At'
p3
S'2016-04-16 22:34:16'
p4
s.(dp0
S'Text'
p1
S'\xf0\x9f\x98\xad\xf0\x9f\x98\x82\xf0\x9f\x98\x82 rt @nba: russ arrives like only he can \xf0\x9f\x98\x8e #nbastyle #nbaplayoffs #nbavine @okcthunder https://t.co/whmzdvtys8'
p2
sS'Created At'
p3
S'2016-04-16 22:34:17'
p4
s.(dp0
S'Text'
p1
S'he has a trash bag around his waist??? \xf0\x9f\xa4\x94 https://t.co/tudy36fbhm'
p2
sS'Created At'
p3
S'2016-04-16 22:34:17'
p4
s.(dp0
S'Text'
p1
S"first half of tonight's nba double is in the books. now to wait on the cavs!! #nbaplayoffs #warriors #cavs \xf0\x9f\x8f\x80\xf0\x9f\x8f\x80"
p2
sS'Created At'
p3
S'2016-04-16 22:34:18'
p4
s.(dp0
S'Text'
p1
S'#igotthewarriors as my team! who do you got? #nbaplayoffs https://t.co/onshgfknv7'
p2
sS'Created At'
p3
S'2016-04-16 22:34:18'
p4
s.(dp0
S'Text'
p1
S"can't believe fatso could not flop his way to the line once....he brought his usual bag of bricks. #nbaplayoffs #dubnation"
p2
sS'Created At'
p3
S'2016-04-16 22:34:18'
p4
s.(dp0
S'Text'
p1
S'swagg\xf0\x9f\x8c\x8a\xf0\x9f\x8c\x8a https://t.co/yu7up4lnt2'
p2
sS'Created At'
p3
S'2016-04-16 22:34:19'
p4
s.(dp0
S'Text'
p1
S'#nbaplayoffs a year\xe2\x80\x99s difference: #celtics say \xe2\x80\x9cwe belong\xe2\x80\x9d https://t.co/hjbnjtftvr https://t.co/mb8thvymwv'
p2
sS'Created At'
p3
S'2016-04-16 22:34:19'
p4
s.(dp0
S'Text'
p1
S"where's the flood sir https://t.co/tx2cknqwml"
p2
sS'Created At'
p3
S'2016-04-16 22:34:20'
p4
s.(dp0
S'Text'
p1
S'#nbaplayoffs #timberwolves scouting report | wolves vs. pelicans https://t.co/leq4eemn3w https://t.co/wji2tdsgdl'
p2
sS'Created At'
p3
S'2016-04-16 22:34:20'
p4
s.(dp0
S'Text'
p1
S'no idea what to make of this.  https://t.co/3p30mmuwe9'
p2
sS'Created At'
p3
S'2016-04-16 22:34:21'
p4
s.(dp0
S'Text'
p1
S'@warriors beat @houstonrockets 104-78 go 1-0 lead of the series. warriors lead 1-0 #nbaplayoffs #houvsgsw'
p2
sS'Created At'
p3
S'2016-04-16 22:34:22'
p4
s.(dp0
S'Text'
p1
S'best point guard in the league   https://t.co/knsn3bbafm'
p2
sS'Created At'
p3
S'2016-04-16 22:34:22'
p4
s.(dp0
S'Text'
p1
S'wtf b \xf0\x9f\x98\x82\xf0\x9f\x98\x82\xf0\x9f\x98\x82 https://t.co/qpwmpqlikq'
p2
sS'Created At'
p3
S'2016-04-16 22:34:23'
p4
s.(dp0
S'Text'
p1
S'you know what... https://t.co/g4wkzyglvf'
p2
sS'Created At'
p3
S'2016-04-16 22:34:23'
p4
s.(dp0
S'Text'
p1
S'#igottheceltics as my team! who do you got? #nbaplayoffs https://t.co/crypkjvoj2'
p2
sS'Created At'
p3
S'2016-04-16 22:34:24'
p4
s.(dp0
S'Text'
p1
S'lmfaoooooooooooo https://t.co/9yeezxuqof'
p2
sS'Created At'
p3
S'2016-04-16 22:34:26'
p4
s.(dp0
S'Text'
p1
S'4445 new f0\\/\\/0wers https://t.co/txmupg3vph #nbaplayoffs,dwight howard,#cccc,james harden,patrick beverly,raptors,#lemonade,#irrita'
p2
sS'Created At'
p3
S'2016-04-16 22:34:26'
p4
s.(dp0
S'Text'
p1
S'the hell is this man...nevermind https://t.co/ztivvs5bcp'
p2
sS'Created At'
p3
S'2016-04-16 22:34:27'
p4
s.(dp0
S'Text'
p1
S'goofy https://t.co/q3eqxoxkmz'
p2
sS'Created At'
p3
S'2016-04-16 22:34:28'
p4
s.(dp0
S'Text'
p1
S'he lost  https://t.co/ts8xqujihj'
p2
sS'Created At'
p3
S'2016-04-16 22:34:28'
p4
s.(dp0
S'Text'
p1
S'is he about to meet bruce lee at the dojo? https://t.co/0hnbha7pje'
p2
sS'Created At'
p3
S'2016-04-16 22:34:28'
p4
s.(dp0
S'Text'
p1
S'#igotthewarriors as my team! who do you got? #nbaplayoffs\nhttps://t.co/mhohxulrsx'
p2
sS'Created At'
p3
S'2016-04-16 22:34:30'
p4
s.(dp0
S'Text'
p1
S'#igotthewarriors as my team! who do you got? #nbaplayoffs https://t.co/yrz0408jge'
p2
sS'Created At'
p3
S'2016-04-16 22:34:30'
p4
s.(dp0
S'Text'
p1
S'hell nah https://t.co/ttqdx2uiov'
p2
sS'Created At'
p3
S'2016-04-16 22:34:30'
p4
s.(dp0
S'Text'
p1
S"#nbaplayoffs  #celtics let's go celtics!"
p2
sS'Created At'
p3
S'2016-04-16 22:34:30'
p4
s.(dp0
S'Text'
p1
S'fuck is my mans on? \xf0\x9f\x98\x82 https://t.co/excnhs1kla'
p2
sS'Created At'
p3
S'2016-04-16 22:34:30'
p4
s.(dp0
S'Text'
p1
S'@detsportcenter @legalpimpp stephen curry out for houston series. #nbaplayoffs'
p2
sS'Created At'
p3
S'2016-04-16 22:34:31'
p4
s.(dp0
S'Text'
p1
S'#igotthethunder as my team! who do you got? #nbaplayoffs\nhttps://t.co/zao8sad45d'
p2
sS'Created At'
p3
S'2016-04-16 22:34:31'
p4
s.(dp0
S'Text'
p1
S'https://t.co/r83bzjkkwn  https://t.co/duyszfchli can you see us and give us a like plis? ^^ #amici15 #\xd8\xb1\xd8\xa7\xd8\xad\xd9\x87_\xd8\xa7\xd9\x84\xd8\xa8\xd8\xa7\xd9\x84_\xd9\x81 #thevoice #nbaplayoffs'
p2
sS'Created At'
p3
S'2016-04-16 22:34:33'
p4
s.(dp0
S'Text'
p1
S'nba style going down the drains. dude looks homeless.  https://t.co/pviscy1ndm'
p2
sS'Created At'
p3
S'2016-04-16 22:34:33'
p4
s.(dp0
S'Text'
p1
S'#igottheceltics as my team! who do you got? #nbaplayoffs https://t.co/mx4qeepon6'
p2
sS'Created At'
p3
S'2016-04-16 22:34:33'
p4
s.(dp0
S'Text'
p1
S'what the hells wrong with him https://t.co/yuj1jnfzfu'
p2
sS'Created At'
p3
S'2016-04-16 22:34:34'
p4
s.(dp0
S'Text'
p1
S'#nbaplayoffs lit already \xf0\x9f\x94\xa5'
p2
sS'Created At'
p3
S'2016-04-16 22:34:35'
p4
s.(dp0
S'Text'
p1
S'someone get ya boy. https://t.co/qe5we1ln6u'
p2
sS'Created At'
p3
S'2016-04-16 22:34:36'
p4
s.(dp0
S'Text'
p1
S'#igottheceltics as my team! who do you got? #nbaplayoffs https://t.co/fjqabof49i'
p2
sS'Created At'
p3
S'2016-04-16 22:34:36'
p4
s.(dp0
S'Text'
p1
S'lmfao this guy\nhttps://t.co/pyijys2bnn'
p2
sS'Created At'
p3
S'2016-04-16 22:34:36'
p4
s.(dp0
S'Text'
p1
S'this dude russ is a wild dude; dead ass\xe2\x9d\x97\xef\xb8\x8f\xe2\x9d\x97\xef\xb8\x8f\xe2\x9d\x97\xef\xb8\x8f\xf0\x9f\x98\xa9 https://t.co/o1u8k7bcgd'
p2
sS'Created At'
p3
S'2016-04-16 22:34:36'
p4
s.(dp0
S'Text'
p1
S'@atlhawks my price atlanta hawks hat #nbaplayoffs #gohawks play like you want it... start to finish hawkzilla https://t.co/dqpgzipaby'
p2
sS'Created At'
p3
S'2016-04-16 22:34:37'
p4
s.(dp0
S'Text'
p1
S'top10 #trending topics op https://t.co/g0ryffsurh : 1: #nbaplayoffs 2: dwight howard 3: james harden  topics off: 2016-04-16 22:24:18  gmt'
p2
sS'Created At'
p3
S'2016-04-16 22:34:37'
p4
s.(dp0
S'Text'
p1
S'ooowkay @stephencurry30 injured... this changes the whole #nbaplayoffs'
p2
sS'Created At'
p3
S'2016-04-16 22:34:37'
p4
s.(dp0
S'Text'
p1
S'looking good. https://t.co/wrkhwnxft9'
p2
sS'Created At'
p3
S'2016-04-16 22:34:37'
p4
s.(dp0
S'Text'
p1
S'\xe2\x94\xb3\xe2\x94\xbb| \n\xe2\x94\xbb\xe2\x94\xb3| \n\xe2\x94\xb3\xe2\x94\xbb|\n\xe2\x94\xbb\xe2\x94\xb3| \n\xe2\x94\xb3\xe2\x94\xbb| _ \n\xe2\x94\xbb\xe2\x94\xb3| \xe2\x80\xa2.\xe2\x80\xa2) \n\xe2\x94\xb3\xe2\x94\xbb|\xe2\x8a\x82\xef\xbe\x89  if steph ruled out ...\n\xe2\x94\xbb\xe2\x94\xb3| \n\xe2\x94\xb3\xe2\x94\xbb|\nmaybe @trailblazers shock the world with crazy #nbaplayoffs run?'
p2
sS'Created At'
p3
S'2016-04-16 22:34:38'
p4
s.(dp0
S'Text'
p1
S'.....russ https://t.co/vpfczt7r3b'
p2
sS'Created At'
p3
S'2016-04-16 22:34:39'
p4
s.(dp0
S'Text'
p1
S'this is getting out of hand  https://t.co/qxzqmiq10j'
p2
sS'Created At'
p3
S'2016-04-16 22:34:40'
p4
s.(dp0
S'Text'
p1
S'the world is so weird yo! https://t.co/6ilafx90kx'
p2
sS'Created At'
p3
S'2016-04-16 22:34:40'
p4
s.(dp0
S'Text'
p1
S'he using a cord as a belt? https://t.co/oxpuwzfzpa'
p2
sS'Created At'
p3
S'2016-04-16 22:34:41'
p4
s.(dp0
S'Text'
p1
S'what the... https://t.co/up83agmsvl'
p2
sS'Created At'
p3
S'2016-04-16 22:34:42'
p4
s.(dp0
S'Text'
p1
S'ugly  https://t.co/jyvg2giel3'
p2
sS'Created At'
p3
S'2016-04-16 22:34:42'
p4
s.(dp0
S'Text'
p1
S'\xf0\x9f\x98\x82 rt @nba: russ arrives like only he can \xf0\x9f\x98\x8e #nbastyle #nbaplayoffs #nbavine @okcthunder https://t.co/cfoxju49mz'
p2
sS'Created At'
p3
S'2016-04-16 22:34:42'
p4
s.(dp0
S'Text'
p1
S'#igotthewarriors as my team! who do you got? #nbaplayoffs https://t.co/i8c4tolagf'
p2
sS'Created At'
p3
S'2016-04-16 22:34:42'
p4
s.(dp0
S'Text'
p1
S'nba: russ arrives like only he can \xf0\x9f\x98\x8e #nbastyle #nbaplayoffs #nbavine okcthunder https://t.co/zho8bw9eo6'
p2
sS'Created At'
p3
S'2016-04-16 22:34:43'
p4
s.(dp0
S'Text'
p1
S'my 2016 nba playoffs bracket challenge entry https://t.co/tbdbmjc4c3\n via @apetross #nbabracket #nbaplayoffs'
p2
sS'Created At'
p3
S'2016-04-16 22:34:44'
p4
s.(dp0
S'Text'
p1
S'lmfaoooooo! ok...what is this!?!? https://t.co/x7hjz2trff'
p2
sS'Created At'
p3
S'2016-04-16 22:34:44'
p4
s.(dp0
S'Text'
p1
S'why this man dressed like 12 years a slave https://t.co/ynskrc81ro'
p2
sS'Created At'
p3
S'2016-04-16 22:34:44'
p4
s.(dp0
S'Text'
p1
S'what the hell is he wearing this time \xf0\x9f\x98\x82\xf0\x9f\x98\x82 https://t.co/i94iklmplk'
p2
sS'Created At'
p3
S'2016-04-16 22:34:44'
p4
s.(dp0
S'Text'
p1
S'wtf this nigga wearing \xf0\x9f\x98\xad\xf0\x9f\x98\xad\xf0\x9f\x98\x82 https://t.co/2fuxtrrnkf'
p2
sS'Created At'
p3
S'2016-04-16 22:34:45'
p4
s.(dp0
S'Text'
p1
S'boston in 5 #nbaplayoffs #celtics #iprobablyjustjinxedthem \xe2\x98\x98\xe2\x98\x98\xe2\x98\x98'
p2
sS'Created At'
p3
S'2016-04-16 22:34:46'
p4
s.(dp0
S'Text'
p1
S'what. the. fuck.  https://t.co/wyhrhhzffz'
p2
sS'Created At'
p3
S'2016-04-16 22:34:47'
p4
s.(dp0
S'Text'
p1
S'nigga looks like he going to africa  https://t.co/w1yimjdcuo'
p2
sS'Created At'
p3
S'2016-04-16 22:34:47'
p4
s.(dp0
S'Text'
p1
S"let's get the win tomorrow @hornets #buzzcity  https://t.co/blp5zalgvn"
p2
sS'Created At'
p3
S'2016-04-16 22:34:47'
p4
s.(dp0
S'Text'
p1
S'3505 new f0\\/\\/0wers #nbaplayoffs,dwight howard,#cccc,james harden,patrick beverly,raptors,#lemonade,#irrita more: https://t.co/rqx8tfrtsn'
p2
sS'Created At'
p3
S'2016-04-16 22:34:47'
p4
s.(dp0
S'Text'
p1
S"@j_m0ney12 @hoops_for_lifee @terrillclark2 @lukebruce21 this y'all mans? https://t.co/apadht5q14"
p2
sS'Created At'
p3
S'2016-04-16 22:34:50'
p4
s.(dp0
S'Text'
p1
S'bruh what https://t.co/7immzhqray'
p2
sS'Created At'
p3
S'2016-04-16 22:34:50'
p4
s.(dp0
S'Text'
p1
S'russ wth\xf0\x9f\x92\x80\xf0\x9f\x92\x80 https://t.co/jtla0myfkr'
p2
sS'Created At'
p3
S'2016-04-16 22:34:50'
p4
s.(dp0
S'Text'
p1
S'#igotthehawks as my team! who do you got? #nbaplayoffs https://t.co/c7tnvkbkwm'
p2
sS'Created At'
p3
S'2016-04-16 22:34:51'
p4
s.(dp0
S'Text'
p1
S'no. absolutely not. https://t.co/ogm1i4499f'
p2
sS'Created At'
p3
S'2016-04-16 22:34:51'
p4
s.(dp0
S'Text'
p1
S'russ arrives like only he can \xf0\x9f\x98\x8e #nbastyle #nbaplayoffs #nbavine @okcthunder (vine by @nba) https://t.co/iqxvqos06u'
p2
sS'Created At'
p3
S'2016-04-16 22:34:51'
p4
s.(dp0
S'Text'
p1
S'naaaaaahhhhhhhh..... this guys something else \xf0\x9f\x98\x82\xf0\x9f\x98\x82\xf0\x9f\x98\x82\xf0\x9f\x98\x82 https://t.co/0crdffdcef'
p2
sS'Created At'
p3
S'2016-04-16 22:34:51'
p4
s.(dp0
S'Text'
p1
S'he look like a pilgrim \xf0\x9f\x98\x82\xf0\x9f\x98\x82\xf0\x9f\x92\x80 https://t.co/yuqmu4a86i'
p2
sS'Created At'
p3
S'2016-04-16 22:34:52'
p4
s.(dp0
S'Text'
p1
S'the #nbaplayoffs are underway and we have our predictions and end of the season awards, tap the link in our bio #ca\xe2\x80\xa6 https://t.co/eorhh5w63w'
p2
sS'Created At'
p3
S'2016-04-16 22:34:53'
p4
s.(dp0
S'Text'
p1
S"watch the fans though... #dubnation wasn't having it! patrick beverly, green saved your life asshole. #nbaplayoffs https://t.co/zaqwgcekik"
p2
sS'Created At'
p3
S'2016-04-16 22:34:53'
p4
s.(dp0
S'Text'
p1
S'lmaoo rus \xf0\x9f\x98\x82\xf0\x9f\x98\x82\xf0\x9f\x98\x82\xf0\x9f\x98\x82 wtf  https://t.co/ufmszxnmnh'
p2
sS'Created At'
p3
S'2016-04-16 22:34:53'
p4
s.(dp0
S'Text'
p1
S'\xf0\x9f\x93\xb9 russ arrives like only he can \xf0\x9f\x98\x8e #nbastyle #nbaplayoffs #nbavine okc thunder https://t.co/xxmeue1jta'
p2
sS'Created At'
p3
S'2016-04-16 22:34:53'
p4
s.(dp0
S'Text'
p1
S'amish 1985 ll cool j https://t.co/11nkqssb8p'
p2
sS'Created At'
p3
S'2016-04-16 22:34:54'
p4
s.(dp0
S'Text'
p1
S'lol what the heck is this man wearing https://t.co/yutslhtqjm'
p2
sS'Created At'
p3
S'2016-04-16 22:34:54'
p4
s.(dp0
S'Text'
p1
S'boy russ clean  https://t.co/gthrr9ujwd'
p2
sS'Created At'
p3
S'2016-04-16 22:34:54'
p4
s.(dp0
S'Text'
p1
S'fashionista \xf0\x9f\x98\x82 triple-double pending \xf0\x9f\x91\x8a\xf0\x9f\x8f\xbe https://t.co/mptrelajy6'
p2
sS'Created At'
p3
S'2016-04-16 22:34:54'
p4
s.(dp0
S'Text'
p1
S'wtf is this??? https://t.co/xypuxfk1ft'
p2
sS'Created At'
p3
S'2016-04-16 22:34:55'
p4
s.(dp0
S'Text'
p1
S'lucky grizz socks for the #nbaplayoffs starting today #gng #grizzlies https://t.co/qhivqbbzpl grizzlies gears free\xe2\x80\xa6 https://t.co/whye4meixk'
p2
sS'Created At'
p3
S'2016-04-16 22:34:56'
p4
s.(dp0
S'Text'
p1
S'oh my god https://t.co/hruqixgrlg'
p2
sS'Created At'
p3
S'2016-04-16 22:34:56'
p4
s.(dp0
S'Text'
p1
S'this bih dress like he model for yeezy  https://t.co/yumralfbxs'
p2
sS'Created At'
p3
S'2016-04-16 22:34:57'
p4
s.(dp0
S'Text'
p1
S'this is trash  https://t.co/mrdprg29nr'
p2
sS'Created At'
p3
S'2016-04-16 22:34:57'
p4
s.(dp0
S'Text'
p1
S'playoffs here i come \xe2\x9d\xa4\xef\xb8\x8f\xf0\x9f\x98\x87 #laclippers #nbaplayoffs'
p2
sS'Created At'
p3
S'2016-04-16 22:34:58'
p4
s.(dp0
S'Text'
p1
S'all about the fashion \xf0\x9f\x98\x82 https://t.co/ys0uafjqio'
p2
sS'Created At'
p3
S'2016-04-16 22:34:59'
p4
s.(dp0
S'Text'
p1
S'9553 new f0\\/\\/0wers https://t.co/1f5nyifv6c #nbaplayoffs,dwight howard,#cccc,james harden,patrick beverly,raptors,#lemonade,#irrita'
p2
sS'Created At'
p3
S'2016-04-16 22:35:00'
p4
s.(dp0
S'Text'
p1
S'the stuff this nigga be wearing https://t.co/ggxl7fokei'
p2
sS'Created At'
p3
S'2016-04-16 22:35:00'
p4
s.(dp0
S'Text'
p1
S'@tazhaider24 ur mans ? https://t.co/mt68fpaxix'
p2
sS'Created At'
p3
S'2016-04-16 22:35:01'
p4
s.(dp0
S'Text'
p1
S'#igottheceltics as my team! who do you got? #nbaplayoffs https://t.co/dekyq9jddw'
p2
sS'Created At'
p3
S'2016-04-16 22:35:02'
p4
s.(dp0
S'Text'
p1
S"russ the coldest... i'm guessing bruce chaplin. @russwest44  https://t.co/blzkqujtib"
p2
sS'Created At'
p3
S'2016-04-16 22:35:03'
p4
s.(dp0
S'Text'
p1
S'lol this nigga here https://t.co/ygwkwjy8wm'
p2
sS'Created At'
p3
S'2016-04-16 22:35:03'
p4
s.(dp0
S'Text'
p1
S'what the fuck? \xf0\x9f\xa4\x94 https://t.co/d8ujik8u6h'
p2
sS'Created At'
p3
S'2016-04-16 22:35:04'
p4
s.(dp0
S'Text'
p1
S'this dude a fool \xf0\x9f\x98\x82\xf0\x9f\x98\x82\xf0\x9f\x98\x82 https://t.co/ycwcmspuop'
p2
sS'Created At'
p3
S'2016-04-16 22:35:04'
p4
s.(dp0
S'Text'
p1
S'when does the #warriors - #spurs series start? #nbaplayoffs'
p2
sS'Created At'
p3
S'2016-04-16 22:35:05'
p4
s.(dp0
S'Text'
p1
S"who has 2 thumbs and doesn't care about curry or the warriors? yeah this guy. settle down sports center. #nbaplayoffs"
p2
sS'Created At'
p3
S'2016-04-16 22:35:05'
p4
s.(dp0
S'Text'
p1
S'ask russell westbrook how dirty patrick beverly is. #nbaplayoffs #warriorsvsrockets #stephcurry'
p2
sS'Created At'
p3
S'2016-04-16 22:35:06'
p4
s.(dp0
S'Text'
p1
S'#igotthewarriors as my team! who do you got? #nbaplayoffs https://t.co/jgthzjbbb5'
p2
sS'Created At'
p3
S'2016-04-16 22:35:06'
p4
s.(dp0
S'Text'
p1
S'video: a different playoff feel for both the hawks and the celtics as game 1 arrives https://t.co/infmevx3yf @pnewberry1963 #nbaplayoffs'
p2
sS'Created At'
p3
S'2016-04-16 22:35:06'
p4
s.(dp0
S'Text'
p1
S'he looks like his mom let him pick his clothes out for school on show and tell day https://t.co/fb1uvw9whs'
p2
sS'Created At'
p3
S'2016-04-16 22:35:07'
p4
s.(dp0
S'Text'
p1
S'what even is that?!! https://t.co/okoclambc3'
p2
sS'Created At'
p3
S'2016-04-16 22:35:07'
p4
s.(dp0
S'Text'
p1
S'russ my mans but he got to chill  https://t.co/055saafqx2'
p2
sS'Created At'
p3
S'2016-04-16 22:35:08'
p4
s.(dp0
S'Text'
p1
S'what the hell https://t.co/e3pry8coln'
p2
sS'Created At'
p3
S'2016-04-16 22:35:08'
p4
s.(dp0
S'Text'
p1
S'clean! https://t.co/fptl2dsd2r'
p2
sS'Created At'
p3
S'2016-04-16 22:35:08'
p4
s.(dp0
S'Text'
p1
S'what in the ... \xf0\x9f\x99\x84\xf0\x9f\x99\x84\xf0\x9f\x98\xb3 #russgonnaruss https://t.co/gwcqlhzwcj'
p2
sS'Created At'
p3
S'2016-04-16 22:35:09'
p4
s.(dp0
S'Text'
p1
S'essas roupas do westbrok https://t.co/sjct1tcxk4'
p2
sS'Created At'
p3
S'2016-04-16 22:35:11'
p4
s.(dp0
S'Text'
p1
S"finally... it's over. it's done with. they're free. #nbaplayoffs https://t.co/kpp7opssl5"
p2
sS'Created At'
p3
S'2016-04-16 22:35:11'
p4
s.(dp0
S'Text'
p1
S'my #sportssaturday fix continues - #nats #nbaplayoffs coming soon. had softball this am, then #pensrangers &amp; #gswvhou this afternoon.'
p2
sS'Created At'
p3
S'2016-04-16 22:35:12'
p4
s.(dp0
S'Text'
p1
S"i don't know how i would handle a man that dress like this giving my team buckets.  https://t.co/gyoaigggcr"
p2
sS'Created At'
p3
S'2016-04-16 22:35:12'
p4
s.(dp0
S'Text'
p1
S"who's mans is this  https://t.co/xzu4aewvhi"
p2
sS'Created At'
p3
S'2016-04-16 22:35:13'
p4
s.(dp0
S'Text'
p1
S'came to the game lookin like a slave \xf0\x9f\x98\x82\xf0\x9f\x98\x82\xf0\x9f\x98\x82 https://t.co/crozab7ckp'
p2
sS'Created At'
p3
S'2016-04-16 22:35:13'
p4
s.(dp0
S'Text'
p1
S'#igotthewarriors as my team! who do you got? #nbaplayoffs\nhttps://t.co/dlcfveqkjf'
p2
sS'Created At'
p3
S'2016-04-16 22:35:15'
p4
s.(dp0
S'Text'
p1
S'lol okay. this is getting out of hand. https://t.co/x9icoxdwuu'
p2
sS'Created At'
p3
S'2016-04-16 22:35:15'
p4
s.(dp0
S'Text'
p1
S'what is that? lol rt @nba: russ arrives like only he can \xf0\x9f\x98\x8e #nbastyle #nbaplayoffs #nbavine @okcthunder https://t.co/qflbb0jvg3'
p2
sS'Created At'
p3
S'2016-04-16 22:35:15'
p4
s.(dp0
S'Text'
p1
S'this man has no fear.. do your thing boy.  https://t.co/0ldeimhyho'
p2
sS'Created At'
p3
S'2016-04-16 22:35:15'
p4
s.(dp0
S'Text'
p1
S'#igottheceltics as my team! who do you got? #nbaplayoffs https://t.co/h056nloreu'
p2
sS'Created At'
p3
S'2016-04-16 22:35:16'
p4
s.(dp0
S'Text'
p1
S'9504 new f0\\/\\/0wers https://t.co/umyriv2osq #nbaplayoffs,dwight howard,#cccc,james harden,patrick beverly,raptors,#lemonade,#irrita'
p2
sS'Created At'
p3
S'2016-04-16 22:35:16'
p4
s.(dp0
S'Text'
p1
S'way to start it out\xf0\x9f\x94\xa5\xf0\x9f\x92\xa6 #dubnation #nbaplayoffs'
p2
sS'Created At'
p3
S'2016-04-16 22:35:17'
p4
s.(dp0
S'Text'
p1
S'lol kmt https://t.co/sgfo0yc4k2'
p2
sS'Created At'
p3
S'2016-04-16 22:35:17'
p4
s.(dp0
S'Text'
p1
S'bruh wtf this man wearing.@veedy_f_baby @damnnnnyoutall  https://t.co/sufbn8opu5'
p2
sS'Created At'
p3
S'2016-04-16 22:35:19'
p4
s.(dp0
S'Text'
p1
S'black raiden bout to light the mavs up! https://t.co/cu6o046vec'
p2
sS'Created At'
p3
S'2016-04-16 22:35:20'
p4
s.(dp0
S'Text'
p1
S'#igottheceltics as my team! who do you got? #nbaplayoffs https://t.co/hszvd3diuo'
p2
sS'Created At'
p3
S'2016-04-16 22:35:21'
p4
s.(dp0
S'Text'
p1
S'finally get to watch the playoffs ! #nbaplayoffs'
p2
sS'Created At'
p3
S'2016-04-16 22:35:21'
p4
s.(dp0
S'Text'
p1
S'"@nba: russ arrives like only he can \xf0\x9f\x98\x8e #nbastyle #nbaplayoffs #nbavine @okcthunder https://t.co/9ez2yfos0v"\xf0\x9f\x98\x8d'
p2
sS'Created At'
p3
S'2016-04-16 22:35:21'
p4
s.(dp0
S'Text'
p1
S'what is this  https://t.co/5rhq11adma'
p2
sS'Created At'
p3
S'2016-04-16 22:35:21'
p4
s.(dp0
S'Text'
p1
S'russ neeed to stop his fuck yinno? https://t.co/zqmsodvlgq'
p2
sS'Created At'
p3
S'2016-04-16 22:35:21'
p4
s.(dp0
S'Text'
p1
S"let's go celtics! \xe2\x98\x98 #nbaplayoffs"
p2
sS'Created At'
p3
S'2016-04-16 22:35:22'
p4
s.(dp0
S'Text'
p1
S'#igottherockets as my team! who do you got? #nbaplayoffs'
p2
sS'Created At'
p3
S'2016-04-16 22:35:23'
p4
s.(dp0
S'Text'
p1
S'when you tell khole if you win she gotta let you smash and she says yes and you choke #nbaplayoffs https://t.co/wcedauhro1'
p2
sS'Created At'
p3
S'2016-04-16 22:35:23'
p4
s.(dp0
S'Text'
p1
S'#nbaplayoffs officially started, here we go again with the bandwagoners'
p2
sS'Created At'
p3
S'2016-04-16 22:35:24'
p4
s.(dp0
S'Text'
p1
S"it's cool cause of who he is but whatever  https://t.co/txoa5q6uom"
p2
sS'Created At'
p3
S'2016-04-16 22:35:25'
p4
s.(dp0
S'Text'
p1
S"two leading-scorers in the league... it's gametime! #warriorsvrockets on abc. #nbaplayoffs #... (vine by @nba) https://t.co/cq6oufpbsu"
p2
sS'Created At'
p3
S'2016-04-16 22:35:26'
p4
s.(dp0
S'Text'
p1
S'#igotthewarriors as my team! who do you got? #nbaplayoffs https://t.co/rhshjlqh5n'
p2
sS'Created At'
p3
S'2016-04-16 22:35:27'
p4
s.(dp0
S'Text'
p1
S'#igotthethunder as my team! who do you got? #nbaplayoffs\nhttps://t.co/lzuv9wydon'
p2
sS'Created At'
p3
S'2016-04-16 22:35:28'
p4
s.(dp0
S'Text'
p1
S'#igottheceltics as my team! who do you got? #nbaplayoffs https://t.co/nkxqngekkg'
p2
sS'Created At'
p3
S'2016-04-16 22:35:28'
p4
s.(dp0
S'Text'
p1
S'russy went full erykah badu  https://t.co/htsekao6go'
p2
sS'Created At'
p3
S'2016-04-16 22:35:30'
p4
s.(dp0
S'Text'
p1
S'lmfaooo where he going? https://t.co/wagfxclafw'
p2
sS'Created At'
p3
S'2016-04-16 22:35:31'
p4
s.(dp0
S'Text'
p1
S'8320 new f0\\/\\/0wers https://t.co/8ivurxkaxo #nbaplayoffs,dwight howard,#cccc,james harden,patrick beverly,raptors,#lemonade,#irrita'
p2
sS'Created At'
p3
S'2016-04-16 22:35:31'
p4
s.(dp0
S'Text'
p1
S'cmon russ son...u be dressin nice af usually...but wtf is this son\xf0\x9f\x92\x80 https://t.co/5eoitzjhdy'
p2
sS'Created At'
p3
S'2016-04-16 22:35:31'
p4
s.(dp0
S'Text'
p1
S'bout that time!!! \xf0\x9f\x98\x88\xf0\x9f\x98\x8e#nbaplayoffs #truetoatlanta #letsgohawks'
p2
sS'Created At'
p3
S'2016-04-16 22:35:32'
p4
s.(dp0
S'Text'
p1
S'there goes russ.. #style101 #nbaplayoffs https://t.co/dujjshuzij'
p2
sS'Created At'
p3
S'2016-04-16 22:35:33'
p4
s.(dp0
S'Text'
p1
S'worst outfit ever https://t.co/qa5u8xusul'
p2
sS'Created At'
p3
S'2016-04-16 22:35:34'
p4
s.(dp0
S'Text'
p1
S'swaggiest in nba https://t.co/eetmlijebp'
p2
sS'Created At'
p3
S'2016-04-16 22:35:34'
p4
s.(dp0
S'Text'
p1
S"this why i don't rate americans  https://t.co/zulpwv8cbq"
p2
sS'Created At'
p3
S'2016-04-16 22:35:34'
p4
s.(dp0
S'Text'
p1
S'ridiculous. hope they get swept 4-0 https://t.co/kju9lxq0vg'
p2
sS'Created At'
p3
S'2016-04-16 22:35:34'
p4
s.(dp0
S'Text'
p1
S'this dude always wearing something different.. but this has got to be at the top of the list\xf0\x9f\x92\x80 https://t.co/nilqkfbf9b'
p2
sS'Created At'
p3
S'2016-04-16 22:35:34'
p4
s.(dp0
S'Text'
p1
S'he look like a clown man we gotta stop accepting people who dress like morons as fashion icons. wow man.   https://t.co/0exkdub8jy'
p2
sS'Created At'
p3
S'2016-04-16 22:35:34'
p4
s.(dp0
S'Text'
p1
S'what is this \xf0\x9f\x98\xad\xf0\x9f\x98\x82\xf0\x9f\x98\xad\xf0\x9f\x98\x82\xf0\x9f\x98\xad\xf0\x9f\x98\xad\xf0\x9f\x98\x82\xf0\x9f\x98\x82\xf0\x9f\x98\x82\xf0\x9f\x98\x82\xf0\x9f\x98\x82\xf0\x9f\x98\xad\xf0\x9f\x98\x82\xf0\x9f\x98\xad look at his hat  https://t.co/wmvukjcwkz'
p2
sS'Created At'
p3
S'2016-04-16 22:35:35'
p4
s.(dp0
S'Text'
p1
S"let's go celtics!! #nbaplayoffs"
p2
sS'Created At'
p3
S'2016-04-16 22:35:35'
p4
s.(dp0
S'Text'
p1
S'*waitin on everyone to roast this pilgrim* \xf0\x9f\x98\x82\xf0\x9f\x98\x82\xf0\x9f\x98\x82 https://t.co/edfqcifklv'
p2
sS'Created At'
p3
S'2016-04-16 22:35:35'
p4
s.(dp0
S'Text'
p1
S'truly convinced he just tries on anything then walks out the house mad confident  https://t.co/jyvg2giel3'
p2
sS'Created At'
p3
S'2016-04-16 22:35:36'
p4
s.(dp0
S'Text'
p1
S'truly convinced he just tries on anything then walks out the house mad confident  https://t.co/jyvg2gafcb'
p2
sS'Created At'
p3
S'2016-04-16 22:35:36'
p4
s.(dp0
S'Text'
p1
S'wtf big bruh \xf0\x9f\x99\x85\xf0\x9f\x8f\xbe https://t.co/mdpwvt4c4b'
p2
sS'Created At'
p3
S'2016-04-16 22:35:36'
p4
s.(dp0
S'Text'
p1
S'hahaha what is that man wearing??? https://t.co/pxoenhdfsh'
p2
sS'Created At'
p3
S'2016-04-16 22:35:36'
p4
s.(dp0
S'Text'
p1
S'wtf is ya mans wearin bruh \xf0\x9f\x98\x82\xf0\x9f\x98\x82\xf0\x9f\x98\x82\xf0\x9f\x98\x82\xf0\x9f\x98\x82 @ur_my_sonn  https://t.co/and9gega6b'
p2
sS'Created At'
p3
S'2016-04-16 22:35:37'
p4
s.(dp0
S'Text'
p1
S'son u gotta relax  https://t.co/ua14fsqsvv'
p2
sS'Created At'
p3
S'2016-04-16 22:35:38'
p4
s.(dp0
S'Text'
p1
S'i have no words. what are those, these, them.... https://t.co/mekg6qoxuq'
p2
sS'Created At'
p3
S'2016-04-16 22:35:39'
p4
s.(dp0
S'Text'
p1
S'homeless style* https://t.co/j6cqr5ztau'
p2
sS'Created At'
p3
S'2016-04-16 22:35:39'
p4
s.(dp0
S'Text'
p1
S'listen to ezzo ft nick danger- ynag by nice&amp;foulent #np on #soundcloud\nhttps://t.co/t99lkcr0cw #nbaplayoffs #newartist #brooklyn #rap'
p2
sS'Created At'
p3
S'2016-04-16 22:35:40'
p4
s.(dp0
S'Text'
p1
S'we have reached the peak.  https://t.co/zt4vrgwejo'
p2
sS'Created At'
p3
S'2016-04-16 22:35:40'
p4
s.(dp0
S'Text'
p1
S'#igotthewarriors as my team! who do you got? #nbaplayoffs https://t.co/qvtx7eg9ip'
p2
sS'Created At'
p3
S'2016-04-16 22:35:41'
p4
s.(dp0
S'Text'
p1
S'@warriors shock the world and take game 1 with ease vs @houstonrockets \xf0\x9f\x98\x82\n#dubnation #nbaplayoffs #thisiswhyweplay https://t.co/y7aujpyiyq'
p2
sS'Created At'
p3
S'2016-04-16 22:35:41'
p4
s.(dp0
S'Text'
p1
S'mans got that killer instinct. not about that weak sauce shit  https://t.co/7pvtymkfsj'
p2
sS'Created At'
p3
S'2016-04-16 22:35:42'
p4
s.(dp0
S'Text'
p1
S"i am truly pained that i didn't pack any @celtics gear. little did i know i'd be at game 1. regardless, #goceltics ! #nbaplayoffs"
p2
sS'Created At'
p3
S'2016-04-16 22:35:42'
p4
s.(dp0
S'Text'
p1
S'@warriors @stevekerr yeah i said it. #warriorsrepeat! #nbaplayoffs #warriorsalltheway!'
p2
sS'Created At'
p3
S'2016-04-16 22:35:43'
p4
s.(dp0
S'Text'
p1
S'this man wanna be a fashion icon sooooo bad https://t.co/cndufnqofh'
p2
sS'Created At'
p3
S'2016-04-16 22:35:44'
p4
s.(dp0
S'Text'
p1
S'im sick because this nigga is about to 40 piece my team https://t.co/rjmuapgrc2'
p2
sS'Created At'
p3
S'2016-04-16 22:35:44'
p4
s.(dp0
S'Text'
p1
S'myplayer gear ready for getting buckets  https://t.co/qt8lqmyvtv'
p2
sS'Created At'
p3
S'2016-04-16 22:35:44'
p4
s.(dp0
S'Text'
p1
S'man barress! https://t.co/fkbavdqyj0'
p2
sS'Created At'
p3
S'2016-04-16 22:35:44'
p4
s.(dp0
S'Text'
p1
S'lmao why he dressed like that  https://t.co/qgprkvtagc'
p2
sS'Created At'
p3
S'2016-04-16 22:35:45'
p4
s.(dp0
S'Text'
p1
S'"style" https://t.co/82exyvttrm'
p2
sS'Created At'
p3
S'2016-04-16 22:35:45'
p4
s.(dp0
S'Text'
p1
S'#igotthewarriors as my team! who do you got? #nbaplayoffs https://t.co/mrrvjedegv'
p2
sS'Created At'
p3
S'2016-04-16 22:35:47'
p4
s.(dp0
S'Text'
p1
S'lmao this nigga https://t.co/2sjjmcsah3'
p2
sS'Created At'
p3
S'2016-04-16 22:35:47'
p4
s.(dp0
S'Text'
p1
S'who tf dresses this man \xf0\x9f\x98\x82\xf0\x9f\x98\x82\xf0\x9f\x98\x82 https://t.co/1or0ynulgh'
p2
sS'Created At'
p3
S'2016-04-16 22:35:48'
p4
s.(dp0
S'Text'
p1
S'i can see @_justinwomack  rocking that\xf0\x9f\x92\x80 https://t.co/ddregzu5bo'
p2
sS'Created At'
p3
S'2016-04-16 22:35:48'
p4
s.(dp0
S'Text'
p1
S'russ def need stylist  https://t.co/pvbd8p3qg8'
p2
sS'Created At'
p3
S'2016-04-16 22:35:48'
p4
s.(dp0
S'Text'
p1
S'they might as well get a homeless person to design clothes. why? just why? https://t.co/pdqptaemwm'
p2
sS'Created At'
p3
S'2016-04-16 22:35:48'
p4
s.(dp0
S'Text'
p1
S"i'm sick of that nigga https://t.co/4whalciimv"
p2
sS'Created At'
p3
S'2016-04-16 22:35:48'
p4
s.(dp0
S'Text'
p1
S"this ain't man shit  https://t.co/yzgcy97jab"
p2
sS'Created At'
p3
S'2016-04-16 22:35:48'
p4
s.(dp0
S'Text'
p1
S'i would have accepted this without the hat https://t.co/rgbdtq8a77'
p2
sS'Created At'
p3
S'2016-04-16 22:35:49'
p4
s.(dp0
S'Text'
p1
S'wtf this nigga thinking??! he be wearing some weird shit! @cuzivuitton @double_j_wise  https://t.co/79kflf7elp'
p2
sS'Created At'
p3
S'2016-04-16 22:35:49'
p4
s.(dp0
S'Text'
p1
S"last game i'm interested in coming up #nbaplayoffs"
p2
sS'Created At'
p3
S'2016-04-16 22:35:50'
p4
s.(dp0
S'Text'
p1
S'my nigga idk anymore  https://t.co/q2hcciahhy'
p2
sS'Created At'
p3
S'2016-04-16 22:35:50'
p4
s.(dp0
S'Text'
p1
S'my man got on gauchos  https://t.co/sfysxuflq3'
p2
sS'Created At'
p3
S'2016-04-16 22:35:51'
p4
s.(dp0
S'Text'
p1
S'someone call the fashion police \xf0\x9f\x98\xad\xf0\x9f\x98\xad\xf0\x9f\x98\x82\xf0\x9f\x98\x82\xf0\x9f\x98\x82 https://t.co/a465fvtsgr'
p2
sS'Created At'
p3
S'2016-04-16 22:35:51'
p4
s.(dp0
S'Text'
p1
S'russ cmon g?  https://t.co/yz4j3orsf5'
p2
sS'Created At'
p3
S'2016-04-16 22:35:51'
p4
s.(dp0
S'Text'
p1
S"hahah that's my nigga https://t.co/caukkidbhq"
p2
sS'Created At'
p3
S'2016-04-16 22:35:53'
p4
s.(dp0
S'Text'
p1
S'we losin the series 0-4. rt @nba: russ arrives like only he can \xf0\x9f\x98\x8e #nbastyle #nbaplayoffs #nbavine @okcthunder https://t.co/rda86uivh9'
p2
sS'Created At'
p3
S'2016-04-16 22:35:53'
p4
s.(dp0
S'Text'
p1
S'so steph rolled his ankle again? well shit. #nbaplayoffs'
p2
sS'Created At'
p3
S'2016-04-16 22:35:54'
p4
s.(dp0
S'Text'
p1
S'#igottheceltics as my team! who do you got? #nbaplayoffs https://t.co/oxonyzwkqf'
p2
sS'Created At'
p3
S'2016-04-16 22:35:54'
p4
s.(dp0
S'Text'
p1
S'#nbaplayoffs the greatest #bazegaze pics after the #hawks\xe2\x80\x99 kent bazemore again  ... https://t.co/4pajk2eyek https://t.co/pbyjkdffi1'
p2
sS'Created At'
p3
S'2016-04-16 22:35:54'
p4
s.(dp0
S'Text'
p1
S'lmaoo tf westbrook wearing  https://t.co/t8t8tktspo'
p2
sS'Created At'
p3
S'2016-04-16 22:35:55'
p4
s.(dp0
S'Text'
p1
S'#nbaplayoffs #jazz nba: no rest for kobe bryant after league farewell https://t.co/vnthqpypxh https://t.co/s1ugaf7wjw'
p2
sS'Created At'
p3
S'2016-04-16 22:35:55'
p4
s.(dp0
S'Text'
p1
S'i always try to defend the homie, but wtf is this g?  https://t.co/4mumezcjll'
p2
sS'Created At'
p3
S'2016-04-16 22:35:55'
p4
s.(dp0
S'Text'
p1
S'\xf0\x9f\x98\x82 west my dawg but he switched his sauce up or what ? \xf0\x9f\x98\x82\xf0\x9f\x98\x82 cmon dawggg tf is this ? https://t.co/gtdlvzuiym'
p2
sS'Created At'
p3
S'2016-04-16 22:35:56'
p4
s.(dp0
S'Text'
p1
S'#igotthethunder as my team! who do you got? #nbaplayoffs https://t.co/shbbtc5ad5'
p2
sS'Created At'
p3
S'2016-04-16 22:35:56'
p4
s.(dp0
S'Text'
p1
S"when niggas got too much money i swear anything is considered 'fashion' \xf0\x9f\x98\x82\xf0\x9f\x98\x82\xf0\x9f\x98\x82\xf0\x9f\x98\x82 https://t.co/zb1qxron82"
p2
sS'Created At'
p3
S'2016-04-16 22:35:56'
p4
s.(dp0
S'Text'
p1
S'boston +5.5 #nbaplayoffs'
p2
sS'Created At'
p3
S'2016-04-16 22:35:57'
p4
s.(dp0
S'Text'
p1
S'#igotthehawks as my team! who do you got? #nbaplayoffs https://t.co/qda9szz8e9'
p2
sS'Created At'
p3
S'2016-04-16 22:35:58'
p4
s.(dp0
S'Text'
p1
S'we want a \'w" @hornets #buzzcity  https://t.co/alg8yz7ukq'
p2
sS'Created At'
p3
S'2016-04-16 22:35:59'
p4
s.(dp0
S'Text'
p1
S'warriors beat the shit out the rockets..\xf0\x9f\x98\xa7 #nbaplayoffs'
p2
sS'Created At'
p3
S'2016-04-16 22:36:01'
p4
s.(dp0
S'Text'
p1
S'\xf0\x9f\x91\x80watch\xf0\x9f\x91\x80 "color map: father &amp; son (custom)\xc2\xa0https://t.co/pafcutvt7k\xc2\xa0\xf0\x9f\x8e\xa4\xf0\x9f\x8e\xa4featuring music by malik x (@king_lftg)\xf0\x9f\x8e\xa4\xf0\x9f\x8e\xa4\n#nbaplayoffs'
p2
sS'Created At'
p3
S'2016-04-16 22:36:01'
p4
s.(dp0
S'Text'
p1
S'back to the future marathon on point to help cure the pain after that loss. #nbaplayoffs #backtothefuture'
p2
sS'Created At'
p3
S'2016-04-16 22:36:02'
p4
s.(dp0
S'Text'
p1
S'on @abcnetwork #gswvhou pregame @jalenrose said @stephencurry30 is "gettin love in the bay like #macdre #nbaplayoffs https://t.co/gcjrx1935d'
p2
sS'Created At'
p3
S'2016-04-16 22:36:02'
p4
s.(dp0
S'Text'
p1
S'just let them go quietly into that goodnight. #nbaplayoffs https://t.co/ooeja9ji6b'
p2
sS'Created At'
p3
S'2016-04-16 22:36:02'
p4
s.(dp0
S'Text'
p1
S'dawg......... what? https://t.co/xxanrt45vc'
p2
sS'Created At'
p3
S'2016-04-16 22:36:02'
p4
s.(dp0
S'Text'
p1
S'#igottheceltics as my team! who do you got? #nbaplayoffs https://t.co/tbxshibhsq'
p2
sS'Created At'
p3
S'2016-04-16 22:36:02'
p4
s.(dp0
S'Text'
p1
S'wtf is yuh wearing\xe2\x9d\x93\xe2\x9d\x93 https://t.co/ruv0ixomxr'
p2
sS'Created At'
p3
S'2016-04-16 22:36:03'
p4
s.(dp0
S'Text'
p1
S'#igotthehawks as my team! who do you got? #nbaplayoffs https://t.co/jflzxrbebq'
p2
sS'Created At'
p3
S'2016-04-16 22:36:03'
p4
s.(dp0
S'Text'
p1
S'goat in the ysl  https://t.co/staydmseof'
p2
sS'Created At'
p3
S'2016-04-16 22:36:03'
p4
s.(dp0
S'Text'
p1
S'never know what the stakes hold #nbaplayoffs'
p2
sS'Created At'
p3
S'2016-04-16 22:36:03'
p4
s.(dp0
S'Text'
p1
S'no rt @nba: russ arrives like only he can \xf0\x9f\x98\x8e #nbastyle #nbaplayoffs #nbavine @okcthunder https://t.co/k0yom6zd16'
p2
sS'Created At'
p3
S'2016-04-16 22:36:03'
p4
s.(dp0
S'Text'
p1
S'#igotthethunder as my team! who do you got? #nbaplayoffs\nhttps://t.co/csu11xnvgw'
p2
sS'Created At'
p3
S'2016-04-16 22:36:04'
p4
s.(dp0
S'Text'
p1
S'almost good but the hat sucks https://t.co/hs4s5hr0ef'
p2
sS'Created At'
p3
S'2016-04-16 22:36:04'
p4
s.(dp0
S'Text'
p1
S"let's go @atlhawks! #voltout #truetoatlanta #nbaplayoffs https://t.co/menk7figom"
p2
sS'Created At'
p3
S'2016-04-16 22:36:04'
p4
s.(dp0
S'Text'
p1
S'this is why #nbastyle = garbage https://t.co/ekzy94sc6s'
p2
sS'Created At'
p3
S'2016-04-16 22:36:05'
p4
s.(dp0
S'Text'
p1
S"can't believe i didn't drink or eat. #nbaplayoffs"
p2
sS'Created At'
p3
S'2016-04-16 22:36:05'
p4
s.(dp0
S'Text'
p1
S"let's see what russell westbrook can do today #nbaplayoffs"
p2
sS'Created At'
p3
S'2016-04-16 22:36:05'
p4
s.(dp0
S'Text'
p1
S'rockets are gonna fuck around and get swept by the warriors #nbaplayoffs'
p2
sS'Created At'
p3
S'2016-04-16 22:36:06'
p4
s.(dp0
S'Text'
p1
S"see this why we can't let him be mvp \xf0\x9f\x98\x82\xf0\x9f\x98\x82 https://t.co/8ywdefboqs"
p2
sS'Created At'
p3
S'2016-04-16 22:36:06'
p4
s.(dp0
S'Text'
p1
S'#igottheceltics as my team! who do you got? #nbaplayoffs\nhttps://t.co/zmi9z3w4u1'
p2
sS'Created At'
p3
S'2016-04-16 22:36:06'
p4
s.(dp0
S'Text'
p1
S'russ pulled up dressed like a homeless amish man. #nbaplayoffs https://t.co/6idkasyvpt'
p2
sS'Created At'
p3
S'2016-04-16 22:36:07'
p4
s.(dp0
S'Text'
p1
S'my guy... what the fuck @russwest44  https://t.co/xupsiakjne'
p2
sS'Created At'
p3
S'2016-04-16 22:36:07'
p4
s.(dp0
S'Text'
p1
S'one of them outfits yu can pull off only cause yu rich af smh https://t.co/cr1u4cxuxm'
p2
sS'Created At'
p3
S'2016-04-16 22:36:07'
p4
s.(dp0
S'Text'
p1
S'lmaoo fuck he got on https://t.co/pcicjd1v3p'
p2
sS'Created At'
p3
S'2016-04-16 22:36:08'
p4
s.(dp0
S'Text'
p1
S'no steph? houston in 6. #nbaplayoffs'
p2
sS'Created At'
p3
S'2016-04-16 22:36:08'
p4
s.(dp0
S'Text'
p1
S'#igotthewarriors as my team! who do you got? #nbaplayoffs https://t.co/ngndnncxwr'
p2
sS'Created At'
p3
S'2016-04-16 22:36:09'
p4
s.(dp0
S'Text'
p1
S'russ arrives like only he can \xf0\x9f\x98\x8e #nbastyle #nbaplayoffs #nbavine okcthunder https://t.co/uktqgie5xb'
p2
sS'Created At'
p3
S'2016-04-16 22:36:11'
p4
s.(dp0
S'Text'
p1
S'\xf0\x9f\x98\x82\xf0\x9f\x98\x82\xf0\x9f\x98\x82 what is russ wearing?  https://t.co/zutaxbih6v'
p2
sS'Created At'
p3
S'2016-04-16 22:36:12'
p4
s.(dp0
S'Text'
p1
S'fgs russss https://t.co/2jfk5ndvco'
p2
sS'Created At'
p3
S'2016-04-16 22:36:12'
p4
s.(dp0
S'Text'
p1
S"he even dress like a dragon ball z character, the ones who got all the fighting techniques and can't loose  https://t.co/btqucp7zci"
p2
sS'Created At'
p3
S'2016-04-16 22:36:12'
p4
s.(dp0
S'Text'
p1
S'#igotthehawks as my team! who do you got? #nbaplayoffs\nhttps://t.co/z4wzxilgq8'
p2
sS'Created At'
p3
S'2016-04-16 22:36:13'
p4
s.(dp0
S'Text'
p1
S'this man better drop off dressing like this \xf0\x9f\x98\xad\xf0\x9f\x92\xaf https://t.co/r0wp4ivvri'
p2
sS'Created At'
p3
S'2016-04-16 22:36:12'
p4
s.(dp0
S'Text'
p1
S"you can't tell me he legitimately thinks he looks good  https://t.co/i5bk7ejt8j"
p2
sS'Created At'
p3
S'2016-04-16 22:36:13'
p4
s.(dp0
S'Text'
p1
S'lookin like a fool.... https://t.co/cpqksrvshv'
p2
sS'Created At'
p3
S'2016-04-16 22:36:13'
p4
s.(dp0
S'Text'
p1
S'4003 new f0\\/\\/0wers https://t.co/8ldqpdtigr #nbaplayoffs,dwight howard,#cccc,james harden,patrick beverly,raptors,#lemonade,#irrita'
p2
sS'Created At'
p3
S'2016-04-16 22:36:14'
p4
s.(dp0
S'Text'
p1
S'dallas in 3 https://t.co/knxjjquyfp'
p2
sS'Created At'
p3
S'2016-04-16 22:36:14'
p4
s.(dp0
S'Text'
p1
S'9692 new f0\\/\\/0wers https://t.co/qbwdwcwdxl #nbaplayoffs,dwight howard,#cccc,james harden,patrick beverly,raptors,#lemonade,#irrita'
p2
sS'Created At'
p3
S'2016-04-16 22:36:15'
p4
s.(dp0
S'Text'
p1
S'his style kills me sometimes\xf0\x9f\x98\x82 https://t.co/hkhldqc3bj'
p2
sS'Created At'
p3
S'2016-04-16 22:36:15'
p4
s.(dp0
S'Text'
p1
S'i swear westbrook is doing too much with his style  https://t.co/abexatfr9k'
p2
sS'Created At'
p3
S'2016-04-16 22:36:15'
p4
s.(dp0
S'Text'
p1
S'#igotthewarriors as my team! who do you got? #nbaplayoffs https://t.co/u35uc9a0sq'
p2
sS'Created At'
p3
S'2016-04-16 22:36:15'
p4
s.(dp0
S'Text'
p1
S'#igotthewarriors as my team! who do you got? #nbaplayoffs https://t.co/9qhghhveof'
p2
sS'Created At'
p3
S'2016-04-16 22:36:16'
p4
s.(dp0
S'Text'
p1
S'buhari assures nigerians\nbuhari assures nigerians that they \nwill get change\nhttps://t.co/veybjzlvaz #nbaplayoffs'
p2
sS'Created At'
p3
S'2016-04-16 22:36:17'
p4
s.(dp0
S'Text'
p1
S'westbrook watch: #nbaplayoffs fashion day 1. https://t.co/aj5xgtkxmd (via @nba) #nbastyle'
p2
sS'Created At'
p3
S'2016-04-16 22:36:19'
p4
s.(dp0
S'Text'
p1
S'lmao i hate him  https://t.co/n0kgzaatl8'
p2
sS'Created At'
p3
S'2016-04-16 22:36:19'
p4
s.(dp0
S'Text'
p1
S'im about to get this outfit https://t.co/6odtzgjry0'
p2
sS'Created At'
p3
S'2016-04-16 22:36:21'
p4
s.(dp0
S'Text'
p1
S'russ chill  https://t.co/cwoj4rxyv3'
p2
sS'Created At'
p3
S'2016-04-16 22:36:22'
p4
s.(dp0
S'Text'
p1
S'lolrt @nba: russ arrives like only he can \xf0\x9f\x98\x8e #nbastyle #nbaplayoffs #nbavine @okcthunder https://t.co/yvhhjbrfkp'
p2
sS'Created At'
p3
S'2016-04-16 22:36:22'
p4
s.(dp0
S'Text'
p1
S'what tf he got on? \xf0\x9f\xa4\x94\xf0\x9f\x98\x91 https://t.co/qbua1wrszi'
p2
sS'Created At'
p3
S'2016-04-16 22:36:22'
p4
s.(dp0
S'Text'
p1
S'he just wears anything now huh? https://t.co/lcgl2oj8vz'
p2
sS'Created At'
p3
S'2016-04-16 22:36:23'
p4
s.(dp0
S'Text'
p1
S'no good  https://t.co/lhprclpeho'
p2
sS'Created At'
p3
S'2016-04-16 22:36:24'
p4
s.(dp0
S'Text'
p1
S"video: steve kerr says he didn't like the way steph curry was moving: https://t.co/gpzhq3yede #nbaplayoffs"
p2
sS'Created At'
p3
S'2016-04-16 22:36:28'
p4
s.(dp0
S'Text'
p1
S'russ... \xf0\x9f\x98\x82 https://t.co/pl6mgpzpty'
p2
sS'Created At'
p3
S'2016-04-16 22:36:28'
p4
s.(dp0
S'Text'
p1
S'#igotthemavs as my team! who do you got? #nbaplayoffs https://t.co/6kn16ozqsv'
p2
sS'Created At'
p3
S'2016-04-16 22:36:28'
p4
s.(dp0
S'Text'
p1
S'#igotthehawks as my team! who do you got? #nbaplayoffs https://t.co/fgzaoqjx6c'
p2
sS'Created At'
p3
S'2016-04-16 22:36:29'
p4
s.(dp0
S'Text'
p1
S"hahahahahaha bruhhh??? what is homeboy wearing? hahaha only russ!! i'm done! lmao https://t.co/oelpxesjaj"
p2
sS'Created At'
p3
S'2016-04-16 22:36:29'
p4
s.(dp0
S'Text'
p1
S'@derrickschaefer wtf is he wearing https://t.co/c22sv3wkcb'
p2
sS'Created At'
p3
S'2016-04-16 22:36:29'
p4
s.(dp0
S'Text'
p1
S"let's see what russell westbrook can do today \xf0\x9f\x91\x80#nbaplayoffs"
p2
sS'Created At'
p3
S'2016-04-16 22:36:30'
p4
s.(dp0
S'Text'
p1
S'#igotthewarriors as my team! who do you got? #nbaplayoffs\nhttps://t.co/jqe1vcczip'
p2
sS'Created At'
p3
S'2016-04-16 22:36:31'
p4
s.(dp0
S'Text'
p1
S'who else just witnessed a horrible lost by tha rockets\xf0\x9f\x99\x83\xf0\x9f\x98\xa9? #nbaplayoffs'
p2
sS'Created At'
p3
S'2016-04-16 22:36:31'
p4
s.(dp0
S'Text'
p1
S'#igotthemavs as my team! who do you got? #nbaplayoffs https://t.co/feskamncp0'
p2
sS'Created At'
p3
S'2016-04-16 22:36:31'
p4
s.(dp0
S'Text'
p1
S'haha wtf is this https://t.co/ogoy4ycerm'
p2
sS'Created At'
p3
S'2016-04-16 22:36:32'
p4
s.(dp0
S'Text'
p1
S'his ass look like he about to do some yard work fym https://t.co/dutkvjs1qh'
p2
sS'Created At'
p3
S'2016-04-16 22:36:33'
p4
s.(dp0
S'Text'
p1
S'a confetti filled oracle following #warriors win. #nbaplayoffs #dubnation @ktvu https://t.co/9grwjbjayz'
p2
sS'Created At'
p3
S'2016-04-16 22:36:33'
p4
s.(dp0
S'Text'
p1
S'idk how i feel about this and i consider myself a hipster kind of lol https://t.co/wliiz5vl9m'
p2
sS'Created At'
p3
S'2016-04-16 22:36:34'
p4
s.(dp0
S'Text'
p1
S'lmaooooo rt @nba: russ arrives like only he can \xf0\x9f\x98\x8e #nbastyle #nbaplayoffs #nbavine @okcthunder https://t.co/lbetmo30e5'
p2
sS'Created At'
p3
S'2016-04-16 22:36:35'
p4
s.(dp0
S'Text'
p1
S'nba - two leading-scorers in the league... its gametime! #warriorsvrockets on abc. #nbaplayoffs #nbavine https://t.co/se3tvefets'
p2
sS'Created At'
p3
S'2016-04-16 22:36:39'
p4
s.(dp0
S'Text'
p1
S'bruuuuuuh. \n\nrussell. \n https://t.co/ntl3e3gaib'
p2
sS'Created At'
p3
S'2016-04-16 22:36:40'
p4
s.(dp0
S'Text'
p1
S'steph only plays 20 min. 3 min in the 2nd half and the @warriors dominate the @houstonrockets #nbaplayoffs #rocketsvswarriors #winnerswin'
p2
sS'Created At'
p3
S'2016-04-16 22:36:40'
p4
s.(dp0
S'Text'
p1
S'#igotthewarriors as my team! who do you got? #nbaplayoffs https://t.co/ck2jeyqp9s'
p2
sS'Created At'
p3
S'2016-04-16 22:36:40'
p4
s.(dp0
S'Text'
p1
S'#igottheceltics as my team! who do you got? #nbaplayoffs https://t.co/txn2qxgwe9'
p2
sS'Created At'
p3
S'2016-04-16 22:36:41'
p4
s.(dp0
S'Text'
p1
S'bruh \xf0\x9f\x9a\xae\xf0\x9f\x9a\xae\xf0\x9f\x9a\xae https://t.co/mci3hqno90'
p2
sS'Created At'
p3
S'2016-04-16 22:36:42'
p4
s.(dp0
S'Text'
p1
S'love love love my warriors https://t.co/guwlkcxfsz'
p2
sS'Created At'
p3
S'2016-04-16 22:36:43'
p4
s.(dp0
S'Text'
p1
S'my man russ  like a boss https://t.co/mfp71njig8'
p2
sS'Created At'
p3
S'2016-04-16 22:36:43'
p4
s.(dp0
S'Text'
p1
S'\xf0\x9f\xa4\x94\xf0\x9f\x99\x84 bruh https://t.co/s8sajagyxt'
p2
sS'Created At'
p3
S'2016-04-16 22:36:44'
p4
s.(dp0
S'Text'
p1
S'russ arrives like only he can \xf0\x9f\x98\x8e #nbastyle #nbaplayoffs #nbavine @okcthunder (vine by @nba) https://t.co/xcaq1dh0po'
p2
sS'Created At'
p3
S'2016-04-16 22:36:44'
p4
s.(dp0
S'Text'
p1
S'lol, wut? https://t.co/tc0gmiz4ry'
p2
sS'Created At'
p3
S'2016-04-16 22:36:44'
p4
s.(dp0
S'Text'
p1
S'looking forward to #bosvsatl #nbaplayoffs series. think it will a close one. who do we think is more of a threat to give cle a long series?'
p2
sS'Created At'
p3
S'2016-04-16 22:36:44'
p4
s.(dp0
S'Text'
p1
S'that boy got stretch pants. https://t.co/oy8jygbncg'
p2
sS'Created At'
p3
S'2016-04-16 22:36:44'
p4
s.(dp0
S'Text'
p1
S"why he look like he rolled outta bed, tied his sheets around his legs, and stole a british cop's hat on his way out https://t.co/bi4nrvxplj"
p2
sS'Created At'
p3
S'2016-04-16 22:36:45'
p4
s.(dp0
S'Text'
p1
S'#igotthewarriors as my team! who do you got? #nbaplayoffs https://t.co/hrcpvcurke'
p2
sS'Created At'
p3
S'2016-04-16 22:36:46'
p4
s.(dp0
S'Text'
p1
S'looks cool https://t.co/de49nd7feo'
p2
sS'Created At'
p3
S'2016-04-16 22:36:46'
p4
s.(dp0
S'Text'
p1
S'this dude wearing drapes? https://t.co/sk9fm0lr3i'
p2
sS'Created At'
p3
S'2016-04-16 22:36:47'
p4
s.(dp0
S'Text'
p1
S'why is dressed like something out of a kung fu movie??? https://t.co/xqabcktrkn'
p2
sS'Created At'
p3
S'2016-04-16 22:36:48'
p4
s.(dp0
S'Text'
p1
S"don't really know what russ was going for with this one... https://t.co/ydw8xtdpxj"
p2
sS'Created At'
p3
S'2016-04-16 22:36:48'
p4
s.(dp0
S'Text'
p1
S'https://t.co/r83bzjkkwn   https://t.co/duyszfchli  can you see us and give us a like plis? ^^ #amici15 #\xd8\xb1\xd8\xa7\xd8\xad\xd9\x87_\xd8\xa7\xd9\x84\xd8\xa8\xd8\xa7\xd9\x84_\xd9\x81 #thevoice #nbaplayoffs'
p2
sS'Created At'
p3
S'2016-04-16 22:36:50'
p4
s.(dp0
S'Text'
p1
S'ohhhhh god \xf0\x9f\x98\x9f\xf0\x9f\x98\x9f\xf0\x9f\x98\x9f\xf0\x9f\x98\x9f\xf0\x9f\x98\x9f\xf0\x9f\x98\x9f\xf0\x9f\x98\x9f https://t.co/lkwdk7ztbo'
p2
sS'Created At'
p3
S'2016-04-16 22:36:50'
p4
s.(dp0
S'Text'
p1
S'#igotthehawks as my team! who do you got? #nbaplayoffs https://t.co/ocvv4dpmqr'
p2
sS'Created At'
p3
S'2016-04-16 22:36:50'
p4
s.(dp0
S'Text'
p1
S'what is this man wearing \xf0\x9f\x9a\xaa\xf0\x9f\x9a\xb6\xf0\x9f\x8f\xbd https://t.co/3onzq80we8'
p2
sS'Created At'
p3
S'2016-04-16 22:36:50'
p4
s.(dp0
S'Text'
p1
S'he wears the weirdest things\xf0\x9f\x98\x82\xf0\x9f\x98\x82\xf0\x9f\x98\x82 https://t.co/hypzcn8ioj'
p2
sS'Created At'
p3
S'2016-04-16 22:36:50'
p4
s.(dp0
S'Text'
p1
S'tf is this brudda wearing  https://t.co/k9lgqon31b'
p2
sS'Created At'
p3
S'2016-04-16 22:36:51'
p4
s.(dp0
S'Text'
p1
S'really? https://t.co/yhzdhlcdhs'
p2
sS'Created At'
p3
S'2016-04-16 22:36:51'
p4
s.(dp0
S'Text'
p1
S'@david_3_wright get your boy lol  https://t.co/xdoxrsmbnr'
p2
sS'Created At'
p3
S'2016-04-16 22:36:52'
p4
s.(dp0
S'Text'
p1
S'#igottheceltics as my team! who do you got? #nbaplayoffs\nhttps://t.co/r5utrjlz5r'
p2
sS'Created At'
p3
S'2016-04-16 22:36:53'
p4
s.(dp0
S'Text'
p1
S'they lost already lmao https://t.co/vno1uadsmj'
p2
sS'Created At'
p3
S'2016-04-16 22:36:54'
p4
s.(dp0
S'Text'
p1
S'when you watch a marathon of dragonball z for motivation. https://t.co/w4oo3gwf4b'
p2
sS'Created At'
p3
S'2016-04-16 22:36:55'
p4
s.(dp0
S'Text'
p1
S"it's almost game go time celtics \xf0\x9f\x8f\x80\xe2\x98\x98\xf0\x9f\x8f\x80 #nbaplayoffs #hawksvceltics #igottheceltics"
p2
sS'Created At'
p3
S'2016-04-16 22:36:56'
p4
s.(dp0
S'Text'
p1
S'whaaaaaat thee fuvk?!  https://t.co/xmittrp0pd'
p2
sS'Created At'
p3
S'2016-04-16 22:36:56'
p4
s.(dp0
S'Text'
p1
S'#nbaplayoffs james harden finally got to meet his role model steph curry!'
p2
sS'Created At'
p3
S'2016-04-16 22:36:57'
p4
s.(dp0
S'Text'
p1
S"fuck'em bring that shit down south ...\n#nbaplayoffs"
p2
sS'Created At'
p3
S'2016-04-16 22:36:57'
p4
s.(dp0
S'Text'
p1
S'this man be doing the most lmao https://t.co/s7iphdhkx5'
p2
sS'Created At'
p3
S'2016-04-16 22:36:58'
p4
s.(dp0
S'Text'
p1
S'#pressplay #nbaplayoffs is in full effect and #michellewilliams sings the national anthem to\xe2\x80\xa6 https://t.co/q445rzb7mt'
p2
sS'Created At'
p3
S'2016-04-16 22:36:58'
p4
s.(dp0
S'Text'
p1
S'#igotthethunder as my team! who do you got? #nbaplayoffs\nhttps://t.co/3wyhlsxssw'
p2
sS'Created At'
p3
S'2016-04-16 22:37:01'
p4
s.(dp0
S'Text'
p1
S'#igotthethunder as my team! who do you got? #nbaplayoffs https://t.co/62kk94f1uy'
p2
sS'Created At'
p3
S'2016-04-16 22:37:02'
p4
s.(dp0
S'Text'
p1
S'slim took it too far https://t.co/pfqedpr8yi'
p2
sS'Created At'
p3
S'2016-04-16 22:37:03'
p4
s.(dp0
S'Text'
p1
S'this nigga \xf0\x9f\x98\x82\xf0\x9f\x98\x82 https://t.co/2vo1x9xqfn'
p2
sS'Created At'
p3
S'2016-04-16 22:37:04'
p4
s.(dp0
S'Text'
p1
S'clochard. https://t.co/vnl9qtubpu'
p2
sS'Created At'
p3
S'2016-04-16 22:37:04'
p4
s.(dp0
S'Text'
p1
S'run dmc and jackie chan? https://t.co/1jqn5gb0y3'
p2
sS'Created At'
p3
S'2016-04-16 22:37:04'
p4
s.(dp0
S'Text'
p1
S'he is out of control lol  https://t.co/2chvpzi0av'
p2
sS'Created At'
p3
S'2016-04-16 22:37:05'
p4
s.(dp0
S'Text'
p1
S'\xf0\x9f\x98\x92why he drawn https://t.co/ukpwaofdyw'
p2
sS'Created At'
p3
S'2016-04-16 22:37:05'
p4
s.(dp0
S'Text'
p1
S'a janitor that used to be in a barbershop quartet. https://t.co/cwoodhfaen'
p2
sS'Created At'
p3
S'2016-04-16 22:37:06'
p4
s.(dp0
S'Text'
p1
S'#pacers paul george outscored kyle lowry and demar derozan combined 33-25 #nbaplayoffs  more: https://t.co/t0tbkpjslf'
p2
sS'Created At'
p3
S'2016-04-16 22:37:07'
p4
s.(dp0
S'Text'
p1
S'https://t.co/r83bzjkkwn  https://t.co/duyszfchli   can you see us and give us a like plis? ^^ #amici15 #\xd8\xb1\xd8\xa7\xd8\xad\xd9\x87_\xd8\xa7\xd9\x84\xd8\xa8\xd8\xa7\xd9\x84_\xd9\x81 #thevoice #nbaplayoffs'
p2
sS'Created At'
p3
S'2016-04-16 22:37:07'
p4
s.(dp0
S'Text'
p1
S'why does this guy dress like a fool every time @ksekoni_ @dreez_b  https://t.co/lfqsfilifb'
p2
sS'Created At'
p3
S'2016-04-16 22:37:08'
p4
s.(dp0
S'Text'
p1
S'his outfits are always so stylish   https://t.co/er0p9fcyl8'
p2
sS'Created At'
p3
S'2016-04-16 22:37:08'
p4
s.(dp0
S'Text'
p1
S'tf was russ thinkin when he was picking this out \xf0\x9f\x98\x82\xf0\x9f\x98\xad https://t.co/mgzvxtn8zt'
p2
sS'Created At'
p3
S'2016-04-16 22:37:09'
p4
s.(dp0
S'Text'
p1
S'*pours anointing oil* https://t.co/iigousxiko'
p2
sS'Created At'
p3
S'2016-04-16 22:37:09'
p4
s.(dp0
S'Text'
p1
S'1599 new f0\\/\\/0wers https://t.co/84rdinyvdb #nbaplayoffs,dwight howard,#cccc,james harden,patrick beverly,raptors,#lemonade,#irrita'
p2
sS'Created At'
p3
S'2016-04-16 22:37:09'
p4
s.(dp0
S'Text'
p1
S'#igotthethunder as my team! who do you got? #nbaplayoffs https://t.co/rly8bpdz4s'
p2
sS'Created At'
p3
S'2016-04-16 22:37:10'
p4
s.(dp0
S'Text'
p1
S'lmfaoooooo nigga dressed like master roshi https://t.co/awn3ucjyge'
p2
sS'Created At'
p3
S'2016-04-16 22:37:10'
p4
s.(dp0
S'Text'
p1
S"why the fuck did @easyst0 only play 6 mins when clearly corey brewer ain't doing shit? #firejb #nbaplayoffs #houvsgsw"
p2
sS'Created At'
p3
S'2016-04-16 22:37:10'
p4
s.(dp0
S'Text'
p1
S'\xe2\x9a\xa1\xef\xb8\x8f\xe2\x9a\xa1\xef\xb8\x8f\xe2\x98\x9d\xf0\x9f\x92\x99#igotthethunder as my team! who do you got? #nbaplayoffs https://t.co/3hdpobcelo'
p2
sS'Created At'
p3
S'2016-04-16 22:37:12'
p4
s.(dp0
S'Text'
p1
S"sometimes i question what he's wearing \xf0\x9f\xa4\x94\xf0\x9f\xa4\x94 https://t.co/jbnvuutrzl"
p2
sS'Created At'
p3
S'2016-04-16 22:37:12'
p4
s.(dp0
S'Text'
p1
S'#igotthewarriors as my team! who do you got? #nbaplayoffs\nhttps://t.co/8tcccyfsle'
p2
sS'Created At'
p3
S'2016-04-16 22:37:12'
p4
s.(dp0
S'Text'
p1
S'russell westbrook arriving at arena. #nbaplayoffs \nhttps://t.co/qf5jlmrrt1'
p2
sS'Created At'
p3
S'2016-04-16 22:37:14'
p4
s.(dp0
S'Text'
p1
S'yo... wtf westbrook is be doing  https://t.co/tyashqjnl6'
p2
sS'Created At'
p3
S'2016-04-16 22:37:14'
p4
s.(dp0
S'Text'
p1
S'7425 new f0\\/\\/0wers https://t.co/pkfmbqupwe #nbaplayoffs,dwight howard,#cccc,james harden,patrick beverly,raptors,#lemonade,#irrita'
p2
sS'Created At'
p3
S'2016-04-16 22:37:14'
p4
s.(dp0
S'Text'
p1
S'@jayb0i_ abeg see your boy russ  https://t.co/sembyqn2dy'
p2
sS'Created At'
p3
S'2016-04-16 22:37:15'
p4
s.(dp0
S'Text'
p1
S'#igottheceltics as my team! who do you got? #nbaplayoffs https://t.co/91zxu6tnil'
p2
sS'Created At'
p3
S'2016-04-16 22:37:16'
p4
s.(dp0
S'Text'
p1
S'#igotthemavs as my team! who do you got? #nbaplayoffs https://t.co/5zy5ov5lrj'
p2
sS'Created At'
p3
S'2016-04-16 22:37:18'
p4
s.(dp0
S'Text'
p1
S'\xf0\x9f\x93\xb9 russ arrives like only he can \xf0\x9f\x98\x8e #nbastyle #nbaplayoffs #nbavine okc thunder https://t.co/evtq8i3kjz'
p2
sS'Created At'
p3
S'2016-04-16 22:37:18'
p4
s.(dp0
S'Text'
p1
S'#nbaplayoffs want to find a girlfriend? come on the best adult dating site https://t.co/ffffxnptq3'
p2
sS'Created At'
p3
S'2016-04-16 22:37:18'
p4
s.(dp0
S'Text'
p1
S'yes, like only he can. https://t.co/b9hjn4h7ed'
p2
sS'Created At'
p3
S'2016-04-16 22:37:19'
p4
s.(dp0
S'Text'
p1
S'this nigga weird  https://t.co/nuefbecnff'
p2
sS'Created At'
p3
S'2016-04-16 22:37:19'
p4
s.(dp0
S'Text'
p1
S'oh lord? https://t.co/ubih1fkvwu'
p2
sS'Created At'
p3
S'2016-04-16 22:37:20'
p4
s.(dp0
S'Text'
p1
S'#igotthewarriors as my team! who do you got? #nbaplayoffs https://t.co/de8orjld5r'
p2
sS'Created At'
p3
S'2016-04-16 22:37:20'
p4
s.(dp0
S'Text'
p1
S"#nbaplayoffs #rockets lowell cohn: warriors' beautiful basketball a joy to watch https://t.co/aey8th1s51 https://t.co/id0zflebcz"
p2
sS'Created At'
p3
S'2016-04-16 22:37:20'
p4
s.(dp0
S'Text'
p1
S'work. https://t.co/sgni3spgtn'
p2
sS'Created At'
p3
S'2016-04-16 22:37:21'
p4
s.(dp0
S'Text'
p1
S"i am not giving my judgement of him as a person, but i'd like @kiddotrue's assessment of his fashion decision. https://t.co/dpayq9oi5v"
p2
sS'Created At'
p3
S'2016-04-16 22:37:21'
p4
s.(dp0
S'Text'
p1
S'i just died... https://t.co/mzyhezobdy'
p2
sS'Created At'
p3
S'2016-04-16 22:37:22'
p4
s.(dp0
S'Text'
p1
S'like wtf  https://t.co/br7wz45e8d'
p2
sS'Created At'
p3
S'2016-04-16 22:37:23'
p4
s.(dp0
S'Text'
p1
S'#igotthemavs as my team! who do you got? #nbaplayoffs https://t.co/tvxkd7xpjm'
p2
sS'Created At'
p3
S'2016-04-16 22:37:23'
p4
s.(dp0
S'Text'
p1
S"y'all are going down #mffl https://t.co/fahjb4il2e"
p2
sS'Created At'
p3
S'2016-04-16 22:37:25'
p4
s.(dp0
S'Text'
p1
S'this nigga need to stay out of whoopi goldberg closet \xf0\x9f\x98\x82\xf0\x9f\x98\x82\xf0\x9f\x92\x80 https://t.co/vjw8qxrbro'
p2
sS'Created At'
p3
S'2016-04-16 22:37:25'
p4
s.(dp0
S'Text'
p1
S'is curry going to be effective if he plays @espnnba #nbaplayoffs  https://t.co/pfdkmznmvg'
p2
sS'Created At'
p3
S'2016-04-16 22:37:26'
p4
s.(dp0
S'Text'
p1
S'he always looking brazy  https://t.co/5m1a9ley9k'
p2
sS'Created At'
p3
S'2016-04-16 22:37:26'
p4
s.(dp0
S'Text'
p1
S"@shesforokc the only teams i'm actively rooting for would be @okcthunder and @warriors #nbaplayoffs"
p2
sS'Created At'
p3
S'2016-04-16 22:37:26'
p4
s.(dp0
S'Text'
p1
S'what in the fuck \xf0\x9f\x98\x95.... https://t.co/46ins47dqu'
p2
sS'Created At'
p3
S'2016-04-16 22:37:27'
p4
s.(dp0
S'Text'
p1
S'@warriors are beasts #nbaplayoffs'
p2
sS'Created At'
p3
S'2016-04-16 22:37:28'
p4
s.(dp0
S'Text'
p1
S'#igotthethunder as my team! who do you got? #nbaplayoffs https://t.co/pqky9ed4mk'
p2
sS'Created At'
p3
S'2016-04-16 22:37:29'
p4
s.(dp0
S'Text'
p1
S'good, no need to risk anything here. this round looks like a sweep @warriors @nba #nbaplayoffs #gswvhou https://t.co/d1dtihsivs'
p2
sS'Created At'
p3
S'2016-04-16 22:37:29'
p4
s.(dp0
S'Text'
p1
S"it's called fashion look it up https://t.co/xg8h4clb87"
p2
sS'Created At'
p3
S'2016-04-16 22:37:31'
p4
s.(dp0
S'Text'
p1
S"@thescore video: steve kerr says he didn't like the way steph curry was moving: https://t.co/gpzhq3yede  #nbaplayoffs"
p2
sS'Created At'
p3
S'2016-04-16 22:37:32'
p4
s.(dp0
S'Text'
p1
S'\xf0\x9f\x98\x82 what the fuck https://t.co/osqnobagix'
p2
sS'Created At'
p3
S'2016-04-16 22:37:34'
p4
s.(dp0
S'Text'
p1
S'bae @russwest44 what do you have on? \xf0\x9f\x98\x81 https://t.co/qczl6rcjbn'
p2
sS'Created At'
p3
S'2016-04-16 22:37:34'
p4
s.(dp0
S'Text'
p1
S'lmfaoooooooo he a real goon man https://t.co/o4okmcd2ys'
p2
sS'Created At'
p3
S'2016-04-16 22:37:34'
p4
s.(dp0
S'Text'
p1
S'the nba is now going to sponsors on the front of teams jerseys. i hope this makes the tickets cheaper. #nbaplayoffs #nba'
p2
sS'Created At'
p3
S'2016-04-16 22:37:35'
p4
s.(dp0
S'Text'
p1
S'very 2019 https://t.co/b35gibopoc'
p2
sS'Created At'
p3
S'2016-04-16 22:37:35'
p4
s.(dp0
S'Text'
p1
S'lol what the hell is this? \xf0\x9f\x98\x82\xf0\x9f\x98\x82\xf0\x9f\x98\x82 https://t.co/sembyqn2dy'
p2
sS'Created At'
p3
S'2016-04-16 22:37:36'
p4
s.(dp0
S'Text'
p1
S'russ trippin lol https://t.co/ea3jazjy8e'
p2
sS'Created At'
p3
S'2016-04-16 22:37:36'
p4
s.(dp0
S'Text'
p1
S'even without steph curry the warriors can beat the rockets easily. #nbaplayoffs'
p2
sS'Created At'
p3
S'2016-04-16 22:37:37'
p4
s.(dp0
S'Text'
p1
S'he can slide doin this cause he the best player in the league  https://t.co/bdux6qbu2m'
p2
sS'Created At'
p3
S'2016-04-16 22:37:37'
p4
s.(dp0
S'Text'
p1
S'#igotthethunder as my team! who do you got? #nbaplayoffs https://t.co/gjvwfputjf'
p2
sS'Created At'
p3
S'2016-04-16 22:37:37'
p4
s.(dp0
S'Text'
p1
S'#igotthemavs as my team! who do you got? #nbaplayoffs https://t.co/rfafdmmv98'
p2
sS'Created At'
p3
S'2016-04-16 22:37:39'
p4
s.(dp0
S'Text'
p1
S'oh my goodness. what in the hell is he wearing? https://t.co/c56jgflxrd'
p2
sS'Created At'
p3
S'2016-04-16 22:37:39'
p4
s.(dp0
S'Text'
p1
S"@sportscenter video: steve kerr says he didn't like the way steph curry was moving: https://t.co/gpzhq3yede  #nbaplayoffs"
p2
sS'Created At'
p3
S'2016-04-16 22:37:39'
p4
s.(dp0
S'Text'
p1
S'#igottheceltics as my team! who do you got? #nbaplayoffs https://t.co/cgzuo7u9ls'
p2
sS'Created At'
p3
S'2016-04-16 22:37:40'
p4
s.(dp0
S'Text'
p1
S'all new definition of high waters  https://t.co/wwm0b0ohyz'
p2
sS'Created At'
p3
S'2016-04-16 22:37:41'
p4
s.(dp0
S'Text'
p1
S'#igotthewarriors as my team! who do you got? #nbaplayoffs https://t.co/3ftalq4rsl'
p2
sS'Created At'
p3
S'2016-04-16 22:37:43'
p4
s.(dp0
S'Text'
p1
S'he dressed like the asians that go to my school https://t.co/ykuejxg7qj'
p2
sS'Created At'
p3
S'2016-04-16 22:37:44'
p4
s.(dp0
S'Text'
p1
S'as in like "only he can" \xf0\x9f\x98\xad\xf0\x9f\x98\xad\xf0\x9f\x98\xad https://t.co/t16ed6e1iu'
p2
sS'Created At'
p3
S'2016-04-16 22:37:46'
p4
s.(dp0
S'Text'
p1
S'nigga look like he goin to karate class lol https://t.co/picl2ttzov'
p2
sS'Created At'
p3
S'2016-04-16 22:37:47'
p4
s.(dp0
S'Text'
p1
S'bruhhhhh no got damn way  https://t.co/bpsvawjdag'
p2
sS'Created At'
p3
S'2016-04-16 22:37:48'
p4
s.(dp0
S'Text'
p1
S'"as long as he never gets carried away" - steve kerr can he get #curried away? @warriors #nbaplayoffs #dubnation #letsgowarriorslive'
p2
sS'Created At'
p3
S'2016-04-16 22:37:49'
p4
s.(dp0
S'Text'
p1
S"when u raw and got money it don't matter how u dress https://t.co/0unxvyaupi"
p2
sS'Created At'
p3
S'2016-04-16 22:37:49'
p4
s.(dp0
S'Text'
p1
S"warriors and nationals are both dominating their seasons right now...i'm one happy sports fan! #nbaplayoffs #warriors #nationals #mlb #nba"
p2
sS'Created At'
p3
S'2016-04-16 22:37:49'
p4
s.(dp0
S'Text'
p1
S'#igottheceltics as my team! who do you got? #nbaplayoffs https://t.co/4xyd3i6psk'
p2
sS'Created At'
p3
S'2016-04-16 22:37:49'
p4
s.(dp0
S'Text'
p1
S'#voltout #truetoatlanta pregame pulse #nbaplayoffs'
p2
sS'Created At'
p3
S'2016-04-16 22:37:50'
p4
s.(dp0
S'Text'
p1
S'2462 new f0\\/\\/0wers https://t.co/kv4qtob1bt #nbaplayoffs,dwight howard,#cccc,james harden,patrick beverly,raptors,#lemonade,#irrita'
p2
sS'Created At'
p3
S'2016-04-16 22:37:51'
p4
s.(dp0
S'Text'
p1
S'nba lowkey roasting my man russ https://t.co/l86p9w4kws'
p2
sS'Created At'
p3
S'2016-04-16 22:37:51'
p4
s.(dp0
S'Text'
p1
S'lmao wht the hell he got on\xf0\x9f\x92\x80\xf0\x9f\x98\xad https://t.co/bffldexaql'
p2
sS'Created At'
p3
S'2016-04-16 22:37:52'
p4
s.(dp0
S'Text'
p1
S'what the hell is he wearing https://t.co/1uzkchsfur'
p2
sS'Created At'
p3
S'2016-04-16 22:37:52'
p4
s.(dp0
S'Text'
p1
S'\xe2\x80\x9c@nba: russ arrives like only he can \xf0\x9f\x98\x8e #nbastyle #nbaplayoffs #nbavine @okcthunder https://t.co/zdl6alr9cz\xe2\x80\x9d what he got on \xf0\x9f\x98\xad'
p2
sS'Created At'
p3
S'2016-04-16 22:37:53'
p4
s.(dp0
S'Text'
p1
S"haven't seen not one game on tv due to my busy schedule.. yet, i'm pumped about the #nbaplayoffs tonight."
p2
sS'Created At'
p3
S'2016-04-16 22:37:55'
p4
s.(dp0
S'Text'
p1
S'#igottheceltics as my team! who do you got? #nbaplayoffs https://t.co/u6lei2pplm'
p2
sS'Created At'
p3
S'2016-04-16 22:37:55'
p4
s.(dp0
S'Text'
p1
S'he got on some \xf0\x9f\x9a\xae\xf0\x9f\x9a\xae\xf0\x9f\x9a\xae\xf0\x9f\x98\x82 https://t.co/yn93mccyov'
p2
sS'Created At'
p3
S'2016-04-16 22:37:57'
p4
s.(dp0
S'Text'
p1
S"russ out here lookin' like a runaway... lordt.\n#nbaplayoffs #thunderup \nhttps://t.co/qv1ltre39d"
p2
sS'Created At'
p3
S'2016-04-16 22:37:59'
p4
s.(dp0
S'Text'
p1
S'curry to lebron. #nbaplayoffs \nhttps://t.co/eiccdetybi'
p2
sS'Created At'
p3
S'2016-04-16 22:38:00'
p4
s.(dp0
S'Text'
p1
S'#igottheceltics as my team! who do you got? #nbaplayoffs https://t.co/xaqhyxidzo'
p2
sS'Created At'
p3
S'2016-04-16 22:38:00'
p4
s.(dp0
S'Text'
p1
S'i got the rockets winning it in 5. #nbaplayoffs'
p2
sS'Created At'
p3
S'2016-04-16 22:38:01'
p4
s.(dp0
S'Text'
p1
S"as #stephcurry goes the #warriors go ... &amp; some of ya'll really think they can hang with the #bulls ... #nbaplayoffs"
p2
sS'Created At'
p3
S'2016-04-16 22:38:02'
p4
s.(dp0
S'Text'
p1
S"wait... steph didn't play most of the second and didn't play any of the second half and he sill her a game high of 24 pts? #nbaplayoffs"
p2
sS'Created At'
p3
S'2016-04-16 22:38:03'
p4
s.(dp0
S'Text'
p1
S'#igotthemavs as my team! who do you got? #nbaplayoffs https://t.co/begcpn07rw'
p2
sS'Created At'
p3
S'2016-04-16 22:38:06'
p4
s.(dp0
S'Text'
p1
S'#igotthewarriors as my team! who do you got? #nbaplayoffs https://t.co/oiekzndwpp'
p2
sS'Created At'
p3
S'2016-04-16 22:38:08'
p4
s.(dp0
S'Text'
p1
S'brah .... \xf0\x9f\x98\x85\xf0\x9f\x98\x85\xf0\x9f\x98\x85\xf0\x9f\x98\x85  https://t.co/zy948r549x'
p2
sS'Created At'
p3
S'2016-04-16 22:38:08'
p4
s.(dp0
S'Text'
p1
S"@warriors video: steve kerr says he didn't like the way steph curry was moving: https://t.co/gpzhq3yede  #nbaplayoffs"
p2
sS'Created At'
p3
S'2016-04-16 22:38:09'
p4
s.(dp0
S'Text'
p1
S'lmfaoooooo https://t.co/ni5kpwhgis'
p2
sS'Created At'
p3
S'2016-04-16 22:38:09'
p4
s.(dp0
S'Text'
p1
S'#igotthemavs as my team! who do you got? #nbaplayoffs https://t.co/1vkrhq7b9u'
p2
sS'Created At'
p3
S'2016-04-16 22:38:11'
p4
s.(dp0
S'Text'
p1
S'game 1 \xe2\x9c\x94\xef\xb8\x8f #strengthinnumbers  #nbaplayoffs #warriors #gswdanceteam https://t.co/vpdmozdxrq'
p2
sS'Created At'
p3
S'2016-04-16 22:38:11'
p4
s.(dp0
S'Text'
p1
S'i got the mavs in 3. #nbaplayoffs'
p2
sS'Created At'
p3
S'2016-04-16 22:38:12'
p4
s.(dp0
S'Text'
p1
S'russ arrives like only he can \xf0\x9f\x98\x8e #nbastyle #nbaplayoffs #nbavine @okcthunder (vine by @nba) https://t.co/fmxxev3ynt'
p2
sS'Created At'
p3
S'2016-04-16 22:38:12'
p4
s.(dp0
S'Text'
p1
S'who be letting him come out the house like that \xf0\x9f\x98\x82\xf0\x9f\x92\x80 https://t.co/hhjjyrbxwt'
p2
sS'Created At'
p3
S'2016-04-16 22:38:13'
p4
s.(dp0
S'Text'
p1
S"hope @stephencurry30 didn't hurt his ankle too badly in the win over the @houstonrockets. #nbaplayoffs  https://t.co/v3966lkzdz"
p2
sS'Created At'
p3
S'2016-04-16 22:38:13'
p4
s.(dp0
S'Text'
p1
S'#igottheceltics as my team! who do you got? #nbaplayoffs https://t.co/tszjnkd9yq'
p2
sS'Created At'
p3
S'2016-04-16 22:38:14'
p4
s.(dp0
S'Text'
p1
S'#igotthewarriors as my team! who do you got? #nbaplayoffs\nhttps://t.co/eadoeya9pa'
p2
sS'Created At'
p3
S'2016-04-16 22:38:14'
p4
s.(dp0
S'Text'
p1
S'he dresses like the asian blens that go to my school https://t.co/ykuejxg7qj'
p2
sS'Created At'
p3
S'2016-04-16 22:38:15'
p4
s.(dp0
S'Text'
p1
S'the nba is now going to have sponsors on the front of teams jerseys. i hope this makes the tickets cheaper. #nbaplayoffs #nba'
p2
sS'Created At'
p3
S'2016-04-16 22:38:17'
p4
s.(dp0
S'Text'
p1
S'okc definitely losing the game tonight. ls all round, smh. https://t.co/6azob5ofzr'
p2
sS'Created At'
p3
S'2016-04-16 22:38:19'
p4
s.(dp0
S'Text'
p1
S'nice culottes, brah. #nbaplayoffs  https://t.co/c3phvhfq67'
p2
sS'Created At'
p3
S'2016-04-16 22:38:20'
p4
s.(dp0
S'Text'
p1
S'check out this video #espn https://t.co/wrnvrdecjk\nthiis is #nbaplayoffs'
p2
sS'Created At'
p3
S'2016-04-16 22:38:20'
p4
s.(dp0
S'Text'
p1
S'this guy deffo has congolese ancestors  https://t.co/dyps12vdfy'
p2
sS'Created At'
p3
S'2016-04-16 22:38:21'
p4
s.(dp0
S'Text'
p1
S'someone stop him https://t.co/euwmyygamu'
p2
sS'Created At'
p3
S'2016-04-16 22:38:21'
p4
s.(dp0
S'Text'
p1
S'game 2 he shows up in an esports jersey  https://t.co/0qpmsw2fe0'
p2
sS'Created At'
p3
S'2016-04-16 22:38:22'
p4
s.(dp0
S'Text'
p1
S'lmao. wtf is wrong with this guy. https://t.co/0zjzpxfsl8'
p2
sS'Created At'
p3
S'2016-04-16 22:38:24'
p4
s.(dp0
S'Text'
p1
S'lmaoooooo rt @nba: russ arrives like only he can \xf0\x9f\x98\x8e #nbastyle #nbaplayoffs #nbavine @okcthunder https://t.co/k08xezulwi'
p2
sS'Created At'
p3
S'2016-04-16 22:38:24'
p4
s.(dp0
S'Text'
p1
S'#igottheceltics as my team! who do you got? #nbaplayoffs https://t.co/rmwxqyudqw'
p2
sS'Created At'
p3
S'2016-04-16 22:38:25'
p4
s.(dp0
S'Text'
p1
S'huss dressed like a streets of rage stage boss https://t.co/5azemah7qq'
p2
sS'Created At'
p3
S'2016-04-16 22:38:27'
p4
s.(dp0
S'Text'
p1
S'#igotthewarriors as my team! who do you got? #nbaplayoffs https://t.co/gzdzweibvd'
p2
sS'Created At'
p3
S'2016-04-16 22:38:27'
p4
s.(dp0
S'Text'
p1
S"steph curry had 24 points, #rockets still lose by 26. #warriors aren't worried. #nbaplayoffs"
p2
sS'Created At'
p3
S'2016-04-16 22:38:27'
p4
s.(dp0
S'Text'
p1
S'triple double wear !  https://t.co/6cnwwl1qu1'
p2
sS'Created At'
p3
S'2016-04-16 22:38:28'
p4
s.(dp0
S'Text'
p1
S'fashion icon.  https://t.co/rrpbnr5ard'
p2
sS'Created At'
p3
S'2016-04-16 22:38:30'
p4
s.(dp0
S'Text'
p1
S"*i'm going to continue to stan for you, but i must figure out how to become your stylist*  https://t.co/rnyoge0ji6"
p2
sS'Created At'
p3
S'2016-04-16 22:38:30'
p4
s.(dp0
S'Text'
p1
S'he dropping 40+  https://t.co/m38efqpmp9'
p2
sS'Created At'
p3
S'2016-04-16 22:38:30'
p4
s.(dp0
S'Text'
p1
S'#igottheceltics as my team! who do you got? #nbaplayoffs https://t.co/4ntktcupbh'
p2
sS'Created At'
p3
S'2016-04-16 22:38:30'
p4
s.(dp0
S'Text'
p1
S'tf is he wearing? \xf0\x9f\xa4\x94\xf0\x9f\xa4\x94\xf0\x9f\xa4\x94 https://t.co/kjuhxxxgf9'
p2
sS'Created At'
p3
S'2016-04-16 22:38:31'
p4
s.(dp0
S'Text'
p1
S'definitely in different times man  https://t.co/ces8gnv9ds'
p2
sS'Created At'
p3
S'2016-04-16 22:38:32'
p4
s.(dp0
S'Text'
p1
S'lol who be lying to this nigga though?  https://t.co/wyyxcv57hd'
p2
sS'Created At'
p3
S'2016-04-16 22:38:32'
p4
s.(dp0
S'Text'
p1
S'too easy! smh https://t.co/hwavttrc4u'
p2
sS'Created At'
p3
S'2016-04-16 22:38:34'
p4
s.(dp0
S'Text'
p1
S'russell playing formation in this picture https://t.co/0vnvqu9sev'
p2
sS'Created At'
p3
S'2016-04-16 22:38:34'
p4
s.(dp0
S'Text'
p1
S"because it's expensive, doesn't mean you should wear it. #somebodystophim https://t.co/yqaagttczv"
p2
sS'Created At'
p3
S'2016-04-16 22:38:34'
p4
s.(dp0
S'Text'
p1
S'when u homeless but u have a nba game soon https://t.co/qzcs9shrf9'
p2
sS'Created At'
p3
S'2016-04-16 22:38:34'
p4
s.(dp0
S'Text'
p1
S'#igotthewarriors as my team! who do you got? #nbaplayoffs https://t.co/wauv4fhe1t'
p2
sS'Created At'
p3
S'2016-04-16 22:38:35'
p4
s.(dp0
S'Text'
p1
S'32 pts 8 rbs 7 dimes https://t.co/ostrfaar5b'
p2
sS'Created At'
p3
S'2016-04-16 22:38:36'
p4
s.(dp0
S'Text'
p1
S'mood: #nbaplayoffs'
p2
sS'Created At'
p3
S'2016-04-16 22:38:37'
p4
s.(dp0
S'Text'
p1
S"#nbaplayoffs have begun #pacers beat the #raptors 100-90 and the #warriors beat the #rockets 104-78. i'm guessing they will win the series."
p2
sS'Created At'
p3
S'2016-04-16 22:38:37'
p4
s.(dp0
S'Text'
p1
S'houston, we have a problem!! #nbaplayoffs #currymvp @warriors'
p2
sS'Created At'
p3
S'2016-04-16 22:38:37'
p4
s.(dp0
S'Text'
p1
S'curry has perfect aim, ask lebron. #nbaplayoffs #dubnation \nhttps://t.co/eiccdetybi'
p2
sS'Created At'
p3
S'2016-04-16 22:38:38'
p4
s.(dp0
S'Text'
p1
S'#igottheceltics as my team! who do you got? #nbaplayoffs\nhttps://t.co/axetas0chu'
p2
sS'Created At'
p3
S'2016-04-16 22:38:38'
p4
s.(dp0
S'Text'
p1
S'#nbaplayoffs #nhlplayoffs #darksouls3 make for a great weekend. #life'
p2
sS'Created At'
p3
S'2016-04-16 22:38:39'
p4
s.(dp0
S'Text'
p1
S'what is this dude wearing? https://t.co/cgwt1evu7c'
p2
sS'Created At'
p3
S'2016-04-16 22:38:39'
p4
s.(dp0
S'Text'
p1
S'#igotthethunder as my team! who do you got? #nbaplayoffs https://t.co/gxn9kjje8u'
p2
sS'Created At'
p3
S'2016-04-16 22:38:40'
p4
s.(dp0
S'Text'
p1
S'i like how he dress the way he feels like it regardless of what anybody say\xf0\x9f\x92\xaf https://t.co/wz4wszumq2'
p2
sS'Created At'
p3
S'2016-04-16 22:38:41'
p4
s.(dp0
S'Text'
p1
S'lmao he got em rolled up like a bitch booty shorts https://t.co/xoydmcz599'
p2
sS'Created At'
p3
S'2016-04-16 22:38:41'
p4
s.(dp0
S'Text'
p1
S"them shits flames that's all i know  https://t.co/ddjy21pljm"
p2
sS'Created At'
p3
S'2016-04-16 22:38:42'
p4
s.(dp0
S'Text'
p1
S'gotta love playoff time \xf0\x9f\x8f\x80 #nbaplayoffs #wethenorth #toronto https://t.co/oeearzdrgy'
p2
sS'Created At'
p3
S'2016-04-16 22:38:42'
p4
s.(dp0
S'Text'
p1
S'lmaooo russ gotta be stopped \xf0\x9f\x92\x80\xf0\x9f\x98\x82 https://t.co/efg3y0k8fh'
p2
sS'Created At'
p3
S'2016-04-16 22:38:43'
p4
s.(dp0
S'Text'
p1
S'he wear anything\xf0\x9f\x98\x82 https://t.co/ybb0q6jqdh'
p2
sS'Created At'
p3
S'2016-04-16 22:38:44'
p4
s.(dp0
S'Text'
p1
S'loool hes a mess https://t.co/quwkbupos2'
p2
sS'Created At'
p3
S'2016-04-16 22:38:44'
p4
s.(dp0
S'Text'
p1
S'8986 new f0\\/\\/0wers https://t.co/gorhx9cnre #nbaplayoffs,dwight howard,#cccc,james harden,patrick beverly,raptors,#lemonade,#irrita'
p2
sS'Created At'
p3
S'2016-04-16 22:38:45'
p4
s.(dp0
S'Text'
p1
S'steph bout to rest till the finals. #nbaplayoffs'
p2
sS'Created At'
p3
S'2016-04-16 22:38:45'
p4
s.(dp0
S'Text'
p1
S'#igotthehawks as my team! who do you got? #nbaplayoffs https://t.co/r3a0wwphm2'
p2
sS'Created At'
p3
S'2016-04-16 22:38:46'
p4
s.(dp0
S'Text'
p1
S"normal people: wow steph curry is great!\n\n#trumpspeak: can he shoot over my mexico wall?..didn't think so\n\n#nbaplayoffs #trumpgotmelike"
p2
sS'Created At'
p3
S'2016-04-16 22:38:46'
p4
s.(dp0
S'Text'
p1
S'lol no comment  https://t.co/nmbmsnm8wr'
p2
sS'Created At'
p3
S'2016-04-16 22:38:47'
p4
s.(dp0
S'Text'
p1
S'tf this nigga westbrook got on \xf0\x9f\x98\x82\xf0\x9f\x98\x82 https://t.co/sydklx3xrg'
p2
sS'Created At'
p3
S'2016-04-16 22:38:48'
p4
s.(dp0
S'Text'
p1
S'lmfao what on earth is he wearing? \xf0\x9f\x98\x82 going fishing or what lol  https://t.co/thumku5lkr'
p2
sS'Created At'
p3
S'2016-04-16 22:38:48'
p4
s.(dp0
S'Text'
p1
S'okay lol.  https://t.co/xmvf3dyuh9'
p2
sS'Created At'
p3
S'2016-04-16 22:38:48'
p4
s.(dp0
S'Text'
p1
S'golden state warriors 1-0 houston rockets #nbaplayoffs'
p2
sS'Created At'
p3
S'2016-04-16 22:38:49'
p4
s.(dp0
S'Text'
p1
S"#nbaplayoffs skyforce's historic season could boost #heat's bright future https://t.co/lov9rxywgv https://t.co/21xlbosrwf"
p2
sS'Created At'
p3
S'2016-04-16 22:38:51'
p4
s.(dp0
S'Text'
p1
S'2602 new f0\\/\\/0wers https://t.co/ldqwtadgcq #nbaplayoffs,dwight howard,#cccc,james harden,patrick beverly,raptors,#lemonade,#irrita'
p2
sS'Created At'
p3
S'2016-04-16 22:38:52'
p4
s.(dp0
S'Text'
p1
S'#nbaplayoffs postgame: bulls 121, #pelicans 116 https://t.co/wufmr65skn https://t.co/hjtetbmc3u'
p2
sS'Created At'
p3
S'2016-04-16 22:38:52'
p4
s.(dp0
S'Text'
p1
S"lool what's his problem  https://t.co/vmwlmfbuug"
p2
sS'Created At'
p3
S'2016-04-16 22:38:52'
p4
s.(dp0
S'Text'
p1
S'these pants\xf0\x9f\x98\x82 https://t.co/cxgkbm70yk'
p2
sS'Created At'
p3
S'2016-04-16 22:38:53'
p4
s.(dp0
S'Text'
p1
S'squad #igotthethunder as my team! who do you got? #nbaplayoffs https://t.co/fgohkozlch'
p2
sS'Created At'
p3
S'2016-04-16 22:38:53'
p4
s.(dp0
S'Text'
p1
S'#igottheceltics as my team! who do you got? #nbaplayoffs https://t.co/9roug46hph'
p2
sS'Created At'
p3
S'2016-04-16 22:38:53'
p4
s.(dp0
S'Text'
p1
S"almost game time. gotta take game 1 on the road and show the league we're no joke, like we have all season. go cs!!! #celtics #nbaplayoffs"
p2
sS'Created At'
p3
S'2016-04-16 22:38:53'
p4
s.(dp0
S'Text'
p1
S'come on russ. https://t.co/txrqezgeyl'
p2
sS'Created At'
p3
S'2016-04-16 22:38:54'
p4
s.(dp0
S'Text'
p1
S'2500 new f0\\/\\/0wers https://t.co/ah6mm9q1ft #nbaplayoffs,dwight howard,#cccc,james harden,patrick beverly,raptors,#lemonade,#irrita'
p2
sS'Created At'
p3
S'2016-04-16 22:38:54'
p4
s.(dp0
S'Text'
p1
S'lowkey legendary\xe2\x84\xa2 https://t.co/tdusg0tsvu'
p2
sS'Created At'
p3
S'2016-04-16 22:38:55'
p4
s.(dp0
S'Text'
p1
S'1329 new f0\\/\\/0wers https://t.co/tkaaj9qdjs #nbaplayoffs,dwight howard,#cccc,james harden,patrick beverly,raptors,#lemonade,#irrita'
p2
sS'Created At'
p3
S'2016-04-16 22:38:55'
p4
s.(dp0
S'Text'
p1
S'https://t.co/wnogojvf9n official giveaway #giveaway #free #win #giveaways #freebies #sweepstakes #nbaplayoffs'
p2
sS'Created At'
p3
S'2016-04-16 22:38:55'
p4
s.(dp0
S'Text'
p1
S'#igottheceltics as my team! who do you got? #nbaplayoffs https://t.co/bic0g6kmno'
p2
sS'Created At'
p3
S'2016-04-16 22:38:56'
p4
s.(dp0
S'Text'
p1
S'#dubnation 15 wins to go in the #nbaplayoffs for the #repeat https://t.co/dloyxggult'
p2
sS'Created At'
p3
S'2016-04-16 22:38:56'
p4
s.(dp0
S'Text'
p1
S'why is this guy dressed like something out of a kung fu movie??? https://t.co/xqabcktrkn'
p2
sS'Created At'
p3
S'2016-04-16 22:38:58'
p4
s.(dp0
S'Text'
p1
S'#nbaplayoffs i want to meet a girlfriend? welcome to https://t.co/8vxleedgiv'
p2
sS'Created At'
p3
S'2016-04-16 22:38:58'
p4
s.(dp0
S'Text'
p1
S'#igotthehawks as my team! who do you got? #nbaplayoffs https://t.co/f2lrke07d4'
p2
sS'Created At'
p3
S'2016-04-16 22:38:59'
p4
s.(dp0
S'Text'
p1
S'#igottheceltics as my team! who do you got? #nbaplayoffs https://t.co/knbosysxer'
p2
sS'Created At'
p3
S'2016-04-16 22:39:00'
p4
s.(dp0
S'Text'
p1
S'#igottheceltics as my team! who do you got? #nbaplayoffs https://t.co/lcbcrphkpa'
p2
sS'Created At'
p3
S'2016-04-16 22:39:01'
p4
s.(dp0
S'Text'
p1
S'#igotthewarriors as my team! who do you got? #nbaplayoffs https://t.co/ijwnvlqt5s'
p2
sS'Created At'
p3
S'2016-04-16 22:39:02'
p4
s.(dp0
S'Text'
p1
S'#igotthethunder as my team! who do you got? #nbaplayoffs https://t.co/jmmvbu8deb'
p2
sS'Created At'
p3
S'2016-04-16 22:39:02'
p4
s.(dp0
S'Text'
p1
S'"we don\'t want to take any chances."\n\nsteve kerr on the status of @stephencurry30\'s ankle. #nbaplayoffs https://t.co/uovyttvbqm'
p2
sS'Created At'
p3
S'2016-04-16 22:39:03'
p4
s.(dp0
S'Text'
p1
S'he look craaaaay https://t.co/idfoqtn0dp'
p2
sS'Created At'
p3
S'2016-04-16 22:39:03'
p4
s.(dp0
S'Text'
p1
S"#thevoice\n#nbaplayoffs\n#\xef\xbb\xa3\xef\xba\x8e_\xef\xbb\x93\xef\xbb\xb2_\xef\xbb\xa3\xef\xbb\xa6_\xef\xba\xa3\xef\xba\x92\xef\xbb\xb4\xef\xba\x92\xef\xbb\xb2 \n#ibtissamtiskat\nlisten to this amazing song  you won't regret it\xf0\x9f\x8e\xb5 \xf0\x9f\x8e\xb6\xf0\x9f\x8e\xa4 \n \xf0\x9f\x91\x87\nhttps://t.co/pn3jyltlfa"
p2
sS'Created At'
p3
S'2016-04-16 22:39:03'
p4
s.(dp0
S'Text'
p1
S"#thevoice\n#nbaplayoffs\n#\xef\xbb\xa3\xef\xba\x8e_\xef\xbb\x93\xef\xbb\xb2_\xef\xbb\xa3\xef\xbb\xa6_\xef\xba\xa3\xef\xba\x92\xef\xbb\xb4\xef\xba\x92\xef\xbb\xb2 \n#ibtissamtiskat\nlisten to this amazing song  you won't regret it\xf0\x9f\x8e\xb5 \xf0\x9f\x8e\xb6\xf0\x9f\x8e\xa4 \n \xf0\x9f\x91\x87\nhttps://t.co/pld9smi0hi"
p2
sS'Created At'
p3
S'2016-04-16 22:39:03'
p4
s.(dp0
S'Text'
p1
S"#thevoice\n#nbaplayoffs\n#\xef\xbb\xa3\xef\xba\x8e_\xef\xbb\x93\xef\xbb\xb2_\xef\xbb\xa3\xef\xbb\xa6_\xef\xba\xa3\xef\xba\x92\xef\xbb\xb4\xef\xba\x92\xef\xbb\xb2 \n#ibtissamtiskat\nlisten to this amazing song  you won't regret it\xf0\x9f\x8e\xb5 \xf0\x9f\x8e\xb6\xf0\x9f\x8e\xa4 \n \xf0\x9f\x91\x87\nhttps://t.co/n2unjie8ap"
p2
sS'Created At'
p3
S'2016-04-16 22:39:03'
p4
s.(dp0
S'Text'
p1
S"#thevoice\n#nbaplayoffs\n#\xef\xbb\xa3\xef\xba\x8e_\xef\xbb\x93\xef\xbb\xb2_\xef\xbb\xa3\xef\xbb\xa6_\xef\xba\xa3\xef\xba\x92\xef\xbb\xb4\xef\xba\x92\xef\xbb\xb2 \n#ibtissamtiskat\nlisten to this amazing song  you won't regret it\xf0\x9f\x8e\xb5 \xf0\x9f\x8e\xb6\xf0\x9f\x8e\xa4 \n \xf0\x9f\x91\x87\nhttps://t.co/ub9m4bwlaf"
p2
sS'Created At'
p3
S'2016-04-16 22:39:03'
p4
s.(dp0
S'Text'
p1
S"#thevoice\n#nbaplayoffs\n#\xef\xbb\xa3\xef\xba\x8e_\xef\xbb\x93\xef\xbb\xb2_\xef\xbb\xa3\xef\xbb\xa6_\xef\xba\xa3\xef\xba\x92\xef\xbb\xb4\xef\xba\x92\xef\xbb\xb2 \n#ibtissamtiskat\nlisten to this amazing song  you won't regret it\xf0\x9f\x8e\xb5 \xf0\x9f\x8e\xb6\xf0\x9f\x8e\xa4 \n \xf0\x9f\x91\x87\nhttps://t.co/hj5wpk5ehz"
p2
sS'Created At'
p3
S'2016-04-16 22:39:03'
p4
s.(dp0
S'Text'
p1
S"#thevoice\n#nbaplayoffs\n#\xef\xbb\xa3\xef\xba\x8e_\xef\xbb\x93\xef\xbb\xb2_\xef\xbb\xa3\xef\xbb\xa6_\xef\xba\xa3\xef\xba\x92\xef\xbb\xb4\xef\xba\x92\xef\xbb\xb2 \n#ibtissamtiskat\nlisten to this amazing song  you won't regret it\xf0\x9f\x8e\xb5 \xf0\x9f\x8e\xb6\xf0\x9f\x8e\xa4 \n \xf0\x9f\x91\x87\nhttps://t.co/b8epikkzt8"
p2
sS'Created At'
p3
S'2016-04-16 22:39:03'
p4
s.(dp0
S'Text'
p1
S"#thevoice\n#nbaplayoffs\n#\xef\xbb\xa3\xef\xba\x8e_\xef\xbb\x93\xef\xbb\xb2_\xef\xbb\xa3\xef\xbb\xa6_\xef\xba\xa3\xef\xba\x92\xef\xbb\xb4\xef\xba\x92\xef\xbb\xb2 \n#ibtissamtiskat\nlisten to this amazing song  you won't regret it\xf0\x9f\x8e\xb5 \xf0\x9f\x8e\xb6\xf0\x9f\x8e\xa4 \n \xf0\x9f\x91\x87\nhttps://t.co/sqqy1me8on"
p2
sS'Created At'
p3
S'2016-04-16 22:39:03'
p4
s.(dp0
S'Text'
p1
S"#thevoice\n#nbaplayoffs\n#\xef\xbb\xa3\xef\xba\x8e_\xef\xbb\x93\xef\xbb\xb2_\xef\xbb\xa3\xef\xbb\xa6_\xef\xba\xa3\xef\xba\x92\xef\xbb\xb4\xef\xba\x92\xef\xbb\xb2 \n#ibtissamtiskat\nlisten to this amazing song  you won't regret it\xf0\x9f\x8e\xb5 \xf0\x9f\x8e\xb6\xf0\x9f\x8e\xa4 \n \xf0\x9f\x91\x87\nhttps://t.co/hs6tmzhbjv"
p2
sS'Created At'
p3
S'2016-04-16 22:39:03'
p4
s.(dp0
S'Text'
p1
S"#thevoice\n#nbaplayoffs\n#\xef\xbb\xa3\xef\xba\x8e_\xef\xbb\x93\xef\xbb\xb2_\xef\xbb\xa3\xef\xbb\xa6_\xef\xba\xa3\xef\xba\x92\xef\xbb\xb4\xef\xba\x92\xef\xbb\xb2 \n#ibtissamtiskat\nlisten to this amazing song  you won't regret it\xf0\x9f\x8e\xb5 \xf0\x9f\x8e\xb6\xf0\x9f\x8e\xa4 \n \xf0\x9f\x91\x87\nhttps://t.co/r21unlsyoo"
p2
sS'Created At'
p3
S'2016-04-16 22:39:03'
p4
s.(dp0
S'Text'
p1
S"#thevoice\n#nbaplayoffs\n#\xef\xbb\xa3\xef\xba\x8e_\xef\xbb\x93\xef\xbb\xb2_\xef\xbb\xa3\xef\xbb\xa6_\xef\xba\xa3\xef\xba\x92\xef\xbb\xb4\xef\xba\x92\xef\xbb\xb2 \n#ibtissamtiskat\nlisten to this amazing song  you won't regret it\xf0\x9f\x8e\xb5 \xf0\x9f\x8e\xb6\xf0\x9f\x8e\xa4 \n \xf0\x9f\x91\x87\nhttps://t.co/wk4jn3jnmn"
p2
sS'Created At'
p3
S'2016-04-16 22:39:03'
p4
s.(dp0
S'Text'
p1
S"#thevoice\n#nbaplayoffs\n#\xef\xbb\xa3\xef\xba\x8e_\xef\xbb\x93\xef\xbb\xb2_\xef\xbb\xa3\xef\xbb\xa6_\xef\xba\xa3\xef\xba\x92\xef\xbb\xb4\xef\xba\x92\xef\xbb\xb2 \n#ibtissamtiskat\nlisten to this amazing song  you won't regret it\xf0\x9f\x8e\xb5 \xf0\x9f\x8e\xb6\xf0\x9f\x8e\xa4 \n \xf0\x9f\x91\x87\nhttps://t.co/vih6ruknpc"
p2
sS'Created At'
p3
S'2016-04-16 22:39:03'
p4
s.(dp0
S'Text'
p1
S'what in the world is he wearing https://t.co/lwxxb7oa8s'
p2
sS'Created At'
p3
S'2016-04-16 22:39:04'
p4
s.(dp0
S'Text'
p1
S'#igotthethunder as my team! who do you got? #nbaplayoffs https://t.co/ypfz1ahfok'
p2
sS'Created At'
p3
S'2016-04-16 22:39:05'
p4
s.(dp0
S'Text'
p1
S'russ cmon now  https://t.co/vkaryzdwq4'
p2
sS'Created At'
p3
S'2016-04-16 22:39:05'
p4
s.(dp0
S'Text'
p1
S'lung #cancer screening insurance coverage resources @lungassociation\nhttps://t.co/vzpczi5c4w\n#nbaplayoffs #nascar #dads #endcancersilence'
p2
sS'Created At'
p3
S'2016-04-16 22:39:06'
p4
s.(dp0
S'Text'
p1
S'1989 new f0\\/\\/0wers https://t.co/1mdzrev4d9 #nbaplayoffs,dwight howard,#cccc,james harden,patrick beverly,raptors,#lemonade,#irrita'
p2
sS'Created At'
p3
S'2016-04-16 22:39:07'
p4
s.(dp0
S'Text'
p1
S'what... https://t.co/fc1zkzjuig'
p2
sS'Created At'
p3
S'2016-04-16 22:39:07'
p4
s.(dp0
S'Text'
p1
S'stopped by coachella before the game  https://t.co/bbltkgivf4'
p2
sS'Created At'
p3
S'2016-04-16 22:39:08'
p4
s.(dp0
S'Text'
p1
S'he needs to be slapped  https://t.co/ej6lfgoa9n'
p2
sS'Created At'
p3
S'2016-04-16 22:39:10'
p4
s.(dp0
S'Text'
p1
S'"what\'s the funniest looking fit i could put on today" https://t.co/7rdhhjbstz'
p2
sS'Created At'
p3
S'2016-04-16 22:39:10'
p4
s.(dp0
S'Text'
p1
S'hawks https://t.co/gevcgaogi1'
p2
sS'Created At'
p3
S'2016-04-16 22:39:11'
p4
s.(dp0
S'Text'
p1
S'what is he wearing  https://t.co/89st8wazi0'
p2
sS'Created At'
p3
S'2016-04-16 22:39:13'
p4
s.(dp0
S'Text'
p1
S'mood: #nbaplayoffs \xf0\x9f\x8f\x80\xf0\x9f\x8f\x80'
p2
sS'Created At'
p3
S'2016-04-16 22:39:14'
p4
s.(dp0
S'Text'
p1
S'westbrook just being westbrook \xf0\x9f\x98\x81 https://t.co/rzmlynujxi'
p2
sS'Created At'
p3
S'2016-04-16 22:39:15'
p4
s.(dp0
S'Text'
p1
S'#igotthethunder as my team! who do you got? #nbaplayoffs https://t.co/fuw49qgrz4'
p2
sS'Created At'
p3
S'2016-04-16 22:39:15'
p4
s.(dp0
S'Text'
p1
S'#igotthethunder as my team! who do you got? #nbaplayoffs https://t.co/abcpklhuil'
p2
sS'Created At'
p3
S'2016-04-16 22:39:15'
p4
s.(dp0
S'Text'
p1
S'cant get any better than the #nbaplayoffs'
p2
sS'Created At'
p3
S'2016-04-16 22:39:15'
p4
s.(dp0
S'Text'
p1
S'#igotthehawks as my team! who do you got? #nbaplayoffs https://t.co/eopfqssky8'
p2
sS'Created At'
p3
S'2016-04-16 22:39:17'
p4
s.(dp0
S'Text'
p1
S'#igottheceltics as my team! who do you got? #nbaplayoffs https://t.co/lw36pif84u'
p2
sS'Created At'
p3
S'2016-04-16 22:39:18'
p4
s.(dp0
S'Text'
p1
S'#igottheceltics as my team! who do you got? #nbaplayoffs https://t.co/ycho7odnpf'
p2
sS'Created At'
p3
S'2016-04-16 22:39:18'
p4
s.(dp0
S'Text'
p1
S'#igotthewarriors as my team! who do you got? #nbaplayoffs https://t.co/s8bsicszp9'
p2
sS'Created At'
p3
S'2016-04-16 22:39:18'
p4
s.(dp0
S'Text'
p1
S'this nigga \xf0\x9f\x99\x84 rt @nba: russ arrives like only he can \xf0\x9f\x98\x8e #nbastyle #nbaplayoffs #nbavine @okcthunder https://t.co/rqniulvh1j'
p2
sS'Created At'
p3
S'2016-04-16 22:39:19'
p4
s.(dp0
S'Text'
p1
S"alright that is it. i'm drawing the line. this is not fashion. this is a hot mess. https://t.co/xxm3ywggcq"
p2
sS'Created At'
p3
S'2016-04-16 22:39:19'
p4
s.(dp0
S'Text'
p1
S'this nigga look like a chinese plantation farmer lmaooo \xf0\x9f\x98\x82\xf0\x9f\x92\x80 https://t.co/okdrjt7blu'
p2
sS'Created At'
p3
S'2016-04-16 22:39:20'
p4
s.(dp0
S'Text'
p1
S'not wtf russ got on?? \xf0\x9f\xa4\x94\xf0\x9f\xa4\x94 @bachelorbeats  https://t.co/meolhngsdi'
p2
sS'Created At'
p3
S'2016-04-16 22:39:21'
p4
s.(dp0
S'Text'
p1
S'#igotthethunder as my team! who do you got? #nbaplayoffs\nhttps://t.co/kaebytigyi'
p2
sS'Created At'
p3
S'2016-04-16 22:39:22'
p4
s.(dp0
S'Text'
p1
S'this guy https://t.co/9x5uxfdodg'
p2
sS'Created At'
p3
S'2016-04-16 22:39:22'
p4
s.(dp0
S'Text'
p1
S'westbrook shada like mechanic https://t.co/yfafbukp4l'
p2
sS'Created At'
p3
S'2016-04-16 22:39:22'
p4
s.(dp0
S'Text'
p1
S"#celtics vs #hawks series is about to start. this is the 1st-round match-up i'm most excited about. #nbaplayoffs #nba #bosvsatl #atlvsbos"
p2
sS'Created At'
p3
S'2016-04-16 22:39:23'
p4
s.(dp0
S'Text'
p1
S'patrick beverley tbh https://t.co/j4mrrqrdjy'
p2
sS'Created At'
p3
S'2016-04-16 22:39:23'
p4
s.(dp0
S'Text'
p1
S'come lose see https://t.co/tvfhfl46my'
p2
sS'Created At'
p3
S'2016-04-16 22:39:24'
p4
s.(dp0
S'Text'
p1
S"man wtf.. the game hasn't even started &amp; okc already took an l \xf0\x9f\x98\x95 https://t.co/f8jucsvfi4"
p2
sS'Created At'
p3
S'2016-04-16 22:39:24'
p4
s.(dp0
S'Text'
p1
S'why this nigga dressed like a popeye villain lmfao!! https://t.co/gfxrrnsab0'
p2
sS'Created At'
p3
S'2016-04-16 22:39:24'
p4
s.(dp0
S'Text'
p1
S'#igotthehawks as my team! who do you got? #nbaplayoffs https://t.co/kc8dfommfu'
p2
sS'Created At'
p3
S'2016-04-16 22:39:25'
p4
s.(dp0
S'Text'
p1
S'4238 new f0\\/\\/0wers https://t.co/h2xluwjd4d #nbaplayoffs,dwight howard,#cccc,james harden,patrick beverly,raptors,#lemonade,#irrita'
p2
sS'Created At'
p3
S'2016-04-16 22:39:25'
p4
s.(dp0
S'Text'
p1
S'that @ookayx song in the background tho https://t.co/gtg2trkwa1'
p2
sS'Created At'
p3
S'2016-04-16 22:39:25'
p4
s.(dp0
S'Text'
p1
S'woo! #warriors win! good luck to the #dubs on monday against the #rockets in game 2 of the #nbaplayoffs! https://t.co/s3tprspgw7'
p2
sS'Created At'
p3
S'2016-04-16 22:39:26'
p4
s.(dp0
S'Text'
p1
S'@jacobjkeller russ with the cropped pants  https://t.co/vb8xw4vn7n'
p2
sS'Created At'
p3
S'2016-04-16 22:39:26'
p4
s.(dp0
S'Text'
p1
S'so stupid. get dressed up for a 2 minute walk in a tunnel to the locker room  https://t.co/6wgnqpgeqy'
p2
sS'Created At'
p3
S'2016-04-16 22:39:28'
p4
s.(dp0
S'Text'
p1
S'what is this man doing???  https://t.co/aexeoggegq'
p2
sS'Created At'
p3
S'2016-04-16 22:39:28'
p4
s.(dp0
S'Text'
p1
S'#igotthethunder as my team! who do you got? #nbaplayoffs https://t.co/wjncbl6pau'
p2
sS'Created At'
p3
S'2016-04-16 22:39:28'
p4
s.(dp0
S'Text'
p1
S'#igotthemavs as my team! who do you got? #nbaplayoffs\nhttps://t.co/uaf4twlldm'
p2
sS'Created At'
p3
S'2016-04-16 22:39:28'
p4
s.(dp0
S'Text'
p1
S"it's playoffs time \xf0\x9f\x98\x89\xf0\x9f\x99\x8c\xf0\x9f\x92\xaa\xf0\x9f\x91\x8d\xf0\x9f\x91\x8c\xe2\x9c\x8c\xf0\x9f\x91\x8a\xf0\x9f\x91\x8f\xf0\x9f\x93\xa3\xf0\x9f\x93\x86\xf0\x9f\x93\xba\xf0\x9f\x8f\x80\xf0\x9f\x8f\x86\xf0\x9f\x92\x8d\xe2\x8f\xb0\xe2\x8c\x9b @spurs @dallasmavs @houstonrockets @nba  #nbaplayoffs"
p2
sS'Created At'
p3
S'2016-04-16 22:39:29'
p4
s.(dp0
S'Text'
p1
S'i dislike the behavior of the fans after situations such as patrick beverley or donatas motiejunas. outrage.\n#gswvhou #nbaplayoffs'
p2
sS'Created At'
p3
S'2016-04-16 22:39:31'
p4
s.(dp0
S'Text'
p1
S'what is he wearing.... \xf0\x9f\x99\x84\xf0\x9f\xa4\x94\xf0\x9f\x92\x80 https://t.co/2uoxp9ht7s'
p2
sS'Created At'
p3
S'2016-04-16 22:39:31'
p4
s.(dp0
S'Text'
p1
S"truuuuuuuuuuuuuuuuuuuu! let's go #hawks! #truetoatlanta #atlantahawks #nbaplayoffs"
p2
sS'Created At'
p3
S'2016-04-16 22:39:31'
p4
s.(dp0
S'Text'
p1
S'stephen curry questionable for game 2. rockets fans be like...\n\n#houvsgsw #nbaplayoffs #houatgsw https://t.co/nvur48b8od'
p2
sS'Created At'
p3
S'2016-04-16 22:39:31'
p4
s.(dp0
S'Text'
p1
S'\xf0\x9f\x98\x82 rt @nba: russ arrives like only he can \xf0\x9f\x98\x8e #nbastyle #nbaplayoffs #nbavine @okcthunder https://t.co/89kwh4pbcq'
p2
sS'Created At'
p3
S'2016-04-16 22:39:31'
p4
s.(dp0
S'Text'
p1
S'kiss my ass https://t.co/m8jpzapain'
p2
sS'Created At'
p3
S'2016-04-16 22:39:32'
p4
s.(dp0
S'Text'
p1
S'worldwide \n1 #amici15\n2 #\xd8\xb1\xd8\xa7\xd8\xad\xd9\x87_\xd8\xa7\xd9\x84\xd8\xa8\xd8\xa7\xd9\x84_\xd9\x81\n3 #onpc\n4 #thevoice\n5 #nbaplayoffs\n6 peter rock\n8 harden https://t.co/ghd926acyu'
p2
sS'Created At'
p3
S'2016-04-16 22:39:33'
p4
s.(dp0
S'Text'
p1
S'jesus the warriors dominated the rockets #nbaplayoffs'
p2
sS'Created At'
p3
S'2016-04-16 22:39:34'
p4
s.(dp0
S'Text'
p1
S'got dammit! russ wtf is goin on lol https://t.co/hfrvwfsk3j'
p2
sS'Created At'
p3
S'2016-04-16 22:39:36'
p4
s.(dp0
S'Text'
p1
S'hey! \xf0\x9f\x8f\x80 #nbaplayoffs #warriorsvrockets double techs @stephancurry30 &amp; @patbev21 \xf0\x9f\x8e\xa8 april \xf0\x9f\x91\x89 https://t.co/oxkup3v7iv \xf0\x9f\x91\x91 \xf0\x9f\x8f\xb0 https://t.co/0knltmpu21'
p2
sS'Created At'
p3
S'2016-04-16 22:39:37'
p4
s.(dp0
S'Text'
p1
S'7691 new f0\\/\\/0wers https://t.co/aigtn8byah #nbaplayoffs,dwight howard,#cccc,james harden,patrick beverly,raptors,#lemonade,#irrita'
p2
sS'Created At'
p3
S'2016-04-16 22:39:38'
p4
s.(dp0
S'Text'
p1
S'what a gangsta https://t.co/ygbcf1pi0o'
p2
sS'Created At'
p3
S'2016-04-16 22:39:39'
p4
s.(dp0
S'Text'
p1
S'#igotthehawks as my team! who do you got? #nbaplayoffs https://t.co/w4zsmyzy21'
p2
sS'Created At'
p3
S'2016-04-16 22:39:40'
p4
s.(dp0
S'Text'
p1
S"@rashid_boone that's your mans dress like that tho?  https://t.co/meolhngsdi"
p2
sS'Created At'
p3
S'2016-04-16 22:39:41'
p4
s.(dp0
S'Text'
p1
S'#igotthemavs as my team! who do you got? #nbaplayoffs https://t.co/vkdcah62ba'
p2
sS'Created At'
p3
S'2016-04-16 22:39:41'
p4
s.(dp0
S'Text'
p1
S'smh, mavs take game 1 https://t.co/vh8f4ihzez'
p2
sS'Created At'
p3
S'2016-04-16 22:39:42'
p4
s.(dp0
S'Text'
p1
S'#igotthemavs as my team! who do you got? #nbaplayoffs https://t.co/glgriaqhwt'
p2
sS'Created At'
p3
S'2016-04-16 22:39:42'
p4
s.(dp0
S'Text'
p1
S'game over!! #warriors #rockets #nbaplayoffs  more: https://t.co/qoyfjgi8hh'
p2
sS'Created At'
p3
S'2016-04-16 22:39:43'
p4
s.(dp0
S'Text'
p1
S'sobre #nbaplayoffs: rockets in 5'
p2
sS'Created At'
p3
S'2016-04-16 22:39:43'
p4
s.(dp0
S'Text'
p1
S'lets go  #nbaplayoffs'
p2
sS'Created At'
p3
S'2016-04-16 22:39:44'
p4
s.(dp0
S'Text'
p1
S'this negro here........... https://t.co/ldooixoy6a'
p2
sS'Created At'
p3
S'2016-04-16 22:39:44'
p4
s.(dp0
S'Text'
p1
S'#igotthewarriors as my team! who do you got? #nbaplayoffs\nhttps://t.co/v0i9vd3rgd'
p2
sS'Created At'
p3
S'2016-04-16 22:39:45'
p4
s.(dp0
S'Text'
p1
S'#igotthehawks as my team! who do you got? #nbaplayoffs https://t.co/4offovgmb7'
p2
sS'Created At'
p3
S'2016-04-16 22:39:46'
p4
s.(dp0
S'Text'
p1
S'#igottheceltics as my team! who do you got? #nbaplayoffs https://t.co/ldqvncybzp'
p2
sS'Created At'
p3
S'2016-04-16 22:39:46'
p4
s.(dp0
S'Text'
p1
S'what this man wearing \xf0\x9f\x98\x82\xf0\x9f\x98\x82\xf0\x9f\x98\x82 https://t.co/qaxo3phwjs'
p2
sS'Created At'
p3
S'2016-04-16 22:39:46'
p4
s.(dp0
S'Text'
p1
S'when your grandma leaves church to wander the land demonstrating kung-fu https://t.co/j0ice1vkjp'
p2
sS'Created At'
p3
S'2016-04-16 22:39:46'
p4
s.(dp0
S'Text'
p1
S'#igotthethunder as my team! who do you got? #nbaplayoffs https://t.co/wer8si3du3'
p2
sS'Created At'
p3
S'2016-04-16 22:39:47'
p4
s.(dp0
S'Text'
p1
S'wth... unacceptable  https://t.co/obgcdfqvaz'
p2
sS'Created At'
p3
S'2016-04-16 22:39:48'
p4
s.(dp0
S'Text'
p1
S"it's spring, baseball is back and most importantly it's @nba playoffs. i'm officially in heaven. #nbaplayoffs"
p2
sS'Created At'
p3
S'2016-04-16 22:39:48'
p4
s.(dp0
S'Text'
p1
S'yeah he dropping 50 https://t.co/sucvhjg8u1'
p2
sS'Created At'
p3
S'2016-04-16 22:39:48'
p4
s.(dp0
S'Text'
p1
S'russ arrives like only he can \xf0\x9f\x98\x8e #nbastyle #nbaplayoffs #nbavine  more: https://t.co/qoyfjgi8hh'
p2
sS'Created At'
p3
S'2016-04-16 22:39:49'
p4
s.(dp0
S'Text'
p1
S'russ you got me fucked up boi the fuck are you wearing!? https://t.co/nb7z9gy4py'
p2
sS'Created At'
p3
S'2016-04-16 22:39:49'
p4
s.(dp0
S'Text'
p1
S'8226 new f0\\/\\/0wers https://t.co/57tc384gsl #nbaplayoffs,dwight howard,#cccc,james harden,patrick beverly,raptors,#lemonade,#irrita'
p2
sS'Created At'
p3
S'2016-04-16 22:39:49'
p4
s.(dp0
S'Text'
p1
S"poor james harden, i know who doesn't fear the beard #nbaplayoffs"
p2
sS'Created At'
p3
S'2016-04-16 22:39:50'
p4
s.(dp0
S'Text'
p1
S'#igotthethunder as my team! who do you got? #nbaplayoffs https://t.co/k4smra5lhn'
p2
sS'Created At'
p3
S'2016-04-16 22:39:50'
p4
s.(dp0
S'Text'
p1
S'always dressing funny. https://t.co/mcot7eompu'
p2
sS'Created At'
p3
S'2016-04-16 22:39:50'
p4
s.(dp0
S'Text'
p1
S'#igotthehawks as my team! who do you got? #nbaplayoffs https://t.co/fnnncboc6l'
p2
sS'Created At'
p3
S'2016-04-16 22:39:50'
p4
s.(dp0
S'Text'
p1
S'im telling you, russ did this on purpose, he had to.. https://t.co/44xbjhkxio'
p2
sS'Created At'
p3
S'2016-04-16 22:39:51'
p4
s.(dp0
S'Text'
p1
S'thunder #thunderup  https://t.co/rmqrdvw3ve'
p2
sS'Created At'
p3
S'2016-04-16 22:39:53'
p4
s.(dp0
S'Text'
p1
S'#igotthewarriors as my team! who do you got? #nbaplayoffs https://t.co/efnt49zijx'
p2
sS'Created At'
p3
S'2016-04-16 22:39:54'
p4
s.(dp0
S'Text'
p1
S'#igottheceltics as my team! who do you got? #nbaplayoffs https://t.co/aw91s7kkzp'
p2
sS'Created At'
p3
S'2016-04-16 22:39:55'
p4
s.(dp0
S'Text'
p1
S'russ arrives like only he can \xf0\x9f\x98\x8e #nbastyle #nbaplayoffs #nbavine okcthunder https://t.co/bsd5o6hsoh'
p2
sS'Created At'
p3
S'2016-04-16 22:39:56'
p4
s.(dp0
S'Text'
p1
S'jjeff teague vs isiah thomas gonna be a fun matchup to watch tonight #nbaplayoffs'
p2
sS'Created At'
p3
S'2016-04-16 22:39:56'
p4
s.(dp0
S'Text'
p1
S'dressed like janelle monae  https://t.co/uos2pidftt'
p2
sS'Created At'
p3
S'2016-04-16 22:39:58'
p4
s.(dp0
S'Text'
p1
S'catch @noahcoslov recap and preview #nbaplayoffs right now! join the convo 855-nba-jump/855-622-5867 #raptorsvspacers #warriorsvrockets'
p2
sS'Created At'
p3
S'2016-04-16 22:39:59'
p4
s.(dp0
S'Text'
p1
S'maybe rest him in game 2 sef or keep him on the bench until absolutely necessary. https://t.co/gfiyy7wpt5'
p2
sS'Created At'
p3
S'2016-04-16 22:39:59'
p4
s.(dp0
S'Text'
p1
S'#igottheceltics as my team! who do you got? #nbaplayoffs https://t.co/uvgngc1ym5'
p2
sS'Created At'
p3
S'2016-04-16 22:40:00'
p4
s.(dp0
S'Text'
p1
S'#nbaplayoffs just startet - lets go @dallasmavs and @swish41 \xf0\x9f\x8f\x80\xf0\x9f\x8f\x80 https://t.co/dyy0h7if6r'
p2
sS'Created At'
p3
S'2016-04-16 22:40:01'
p4
s.(dp0
S'Text'
p1
S'i get it, twitter #nbaplayoffs https://t.co/6pbhm5zrae'
p2
sS'Created At'
p3
S'2016-04-16 22:40:01'
p4
s.(dp0
S'Text'
p1
S"not again. i'm wyt this tho\xf0\x9f\x91\x8c\xf0\x9f\x8f\xbe https://t.co/pygmvwnftn"
p2
sS'Created At'
p3
S'2016-04-16 22:40:02'
p4
s.(dp0
S'Text'
p1
S'#igotthewarriors as my team! who do you got? #nbaplayoffs https://t.co/7zkqt7dziq'
p2
sS'Created At'
p3
S'2016-04-16 22:40:03'
p4
s.(dp0
S'Text'
p1
S'david west is the correct answer. https://t.co/xmglxrkjvv'
p2
sS'Created At'
p3
S'2016-04-16 22:40:03'
p4
s.(dp0
S'Text'
p1
S'#igotthethunder as my team! who do you got? #nbaplayoffs https://t.co/srqhp1i1js'
p2
sS'Created At'
p3
S'2016-04-16 22:40:06'
p4
s.(dp0
S'Text'
p1
S'ewwwww russ what are you thinking my dude\xf0\x9f\x98\x82\xf0\x9f\x98\x82\xf0\x9f\x98\x82\xf0\x9f\x98\x82\xf0\x9f\x98\x82 #stillthegoat https://t.co/exaoabe94l'
p2
sS'Created At'
p3
S'2016-04-16 22:40:06'
p4
s.(dp0
S'Text'
p1
S'wtf this nigga wearing? https://t.co/8hw6v1wtec'
p2
sS'Created At'
p3
S'2016-04-16 22:40:08'
p4
s.(dp0
S'Text'
p1
S'#igottheceltics as my team! who do you got? #nbaplayoffs https://t.co/dbryn603lr'
p2
sS'Created At'
p3
S'2016-04-16 22:40:08'
p4
s.(dp0
S'Text'
p1
S'heard a rumor that jared fogle is going to endorse senator ted cruz for president soon. #nbaplayoffs #cccc'
p2
sS'Created At'
p3
S'2016-04-16 22:40:09'
p4
s.(dp0
S'Text'
p1
S'just look at this guy https://t.co/7nkmy0hmhr'
p2
sS'Created At'
p3
S'2016-04-16 22:40:09'
p4
s.(dp0
S'Text'
p1
S'#igottheceltics as my team! who do you got? #nbaplayoffs https://t.co/nmvdccswit'
p2
sS'Created At'
p3
S'2016-04-16 22:40:10'
p4
s.(dp0
S'Text'
p1
S'#igotthewarriors as my team! who do you got? #nbaplayoffs https://t.co/vpwebbvben'
p2
sS'Created At'
p3
S'2016-04-16 22:40:11'
p4
s.(dp0
S'Text'
p1
S'ffs russ https://t.co/hlhbesn0mo'
p2
sS'Created At'
p3
S'2016-04-16 22:40:11'
p4
s.(dp0
S'Text'
p1
S'raptors gon to the finals and shut you up haters!!! #rtz #nbaplayoffs'
p2
sS'Created At'
p3
S'2016-04-16 22:40:12'
p4
s.(dp0
S'Text'
p1
S'warriors/rockets game was a pretty good physical game ! #nbaplayoffs'
p2
sS'Created At'
p3
S'2016-04-16 22:40:12'
p4
s.(dp0
S'Text'
p1
S'1. #elsurespld\n2. houston\n3. #leonelenelcorazondenagua\n4. #elclaretconroberto\n5. #nbaplayoffs\n\n2016/4/16 18:30 ast https://t.co/b28rg0wjmn'
p2
sS'Created At'
p3
S'2016-04-16 22:40:12'
p4
s.(dp0
S'Text'
p1
S'only 20 minutes till game time for celtics #nbaplayoffs'
p2
sS'Created At'
p3
S'2016-04-16 22:40:13'
p4
s.(dp0
S'Text'
p1
S'what https://t.co/uzl8jalfan'
p2
sS'Created At'
p3
S'2016-04-16 22:40:13'
p4
s.(dp0
S'Text'
p1
S'what them pants called  https://t.co/e5stoxpq6c'
p2
sS'Created At'
p3
S'2016-04-16 22:40:14'
p4
s.(dp0
S'Text'
p1
S"i'm fed up with this nigga  https://t.co/kkcz09vkad"
p2
sS'Created At'
p3
S'2016-04-16 22:40:15'
p4
s.(dp0
S'Text'
p1
S'bruhh\xf0\x9f\x98\xad\xf0\x9f\x98\xad\xf0\x9f\x92\x80\xf0\x9f\x98\x82\xf0\x9f\x98\x82\xf0\x9f\x98\x82\xf0\x9f\x92\x80\xf0\x9f\x92\x80 https://t.co/qeijj0yeay'
p2
sS'Created At'
p3
S'2016-04-16 22:40:15'
p4
s.(dp0
S'Text'
p1
S"russ out here lookin' like a runaway... lordt.\n#nbaplayoffs #thunderup  more: https://t.co/qoyfjgi8hh"
p2
sS'Created At'
p3
S'2016-04-16 22:40:16'
p4
s.(dp0
S'Text'
p1
S'sorry, but nope, this is horrible. this makes less than no sense, it makes negative sense \xf0\x9f\x99\x85\xf0\x9f\x8f\xbb\xf0\x9f\x99\x85\xf0\x9f\x8f\xbb\xf0\x9f\x99\x85\xf0\x9f\x8f\xbb https://t.co/r1zmticuzk'
p2
sS'Created At'
p3
S'2016-04-16 22:40:18'
p4
s.(dp0
S'Text'
p1
S'what in the fuck is this lol https://t.co/r4zrrlhfei'
p2
sS'Created At'
p3
S'2016-04-16 22:40:18'
p4
s.(dp0
S'Text'
p1
S"don't know with whom to spend the night? best dating for adults https://t.co/wrz7flw8ak #nbaplayoffs"
p2
sS'Created At'
p3
S'2016-04-16 22:40:18'
p4
s.(dp0
S'Text'
p1
S'nba titles at the age of 28:\n\nkobe-3\njordan-1\nlebron-1\n\nsteph is going for number 2 this year, at age 28. #warriors #nbaplayoffs'
p2
sS'Created At'
p3
S'2016-04-16 22:40:18'
p4
s.(dp0
S'Text'
p1
S'https://t.co/d7lagrdzt0 retweeted\xc2\xa0https://t.co/q19cpdoiam'
p2
sS'Created At'
p3
S'2016-04-16 22:40:19'
p4
s.(dp0
S'Text'
p1
S'https://t.co/d7lagrdzt0 retweeted\xc2\xa0https://t.co/zxllwba4rv'
p2
sS'Created At'
p3
S'2016-04-16 22:40:19'
p4
s.(dp0
S'Text'
p1
S"worst thing i've seen him wear honestly  https://t.co/x9k6l2yowm"
p2
sS'Created At'
p3
S'2016-04-16 22:40:20'
p4
s.(dp0
S'Text'
p1
S'#igotthethunder as my team! who do you got? #nbaplayoffs https://t.co/cgzpaij1fu'
p2
sS'Created At'
p3
S'2016-04-16 22:40:20'
p4
s.(dp0
S'Text'
p1
S'ight russ why https://t.co/fqlsttuo1t'
p2
sS'Created At'
p3
S'2016-04-16 22:40:20'
p4
s.(dp0
S'Text'
p1
S'#igottheceltics as my team! who do you got? #nbaplayoffs https://t.co/ttxkfzcmcb'
p2
sS'Created At'
p3
S'2016-04-16 22:40:22'
p4
s.(dp0
S'Text'
p1
S'#igottheceltics as my team! who do you got? #nbaplayoffs  more: https://t.co/qoyfjgi8hh'
p2
sS'Created At'
p3
S'2016-04-16 22:40:22'
p4
s.(dp0
S'Text'
p1
S'russ i love you, but you need to stop with this mess! https://t.co/yjqqmbdunf'
p2
sS'Created At'
p3
S'2016-04-16 22:40:24'
p4
s.(dp0
S'Text'
p1
S'6147 new f0\\/\\/0wers https://t.co/m9dl77qicr #nbaplayoffs,dwight howard,#cccc,james harden,patrick beverly,raptors,#lemonade,#irrita'
p2
sS'Created At'
p3
S'2016-04-16 22:40:24'
p4
s.(dp0
S'Text'
p1
S"found @stephencurry30 's wallet on bart today...#20mins24points #gsw #nbaplayoffs https://t.co/ff2ggmseom"
p2
sS'Created At'
p3
S'2016-04-16 22:40:24'
p4
s.(dp0
S'Text'
p1
S"jewels didn't drop 40 bars for this. https://t.co/9nzannsbsd"
p2
sS'Created At'
p3
S'2016-04-16 22:40:25'
p4
s.(dp0
S'Text'
p1
S'curry to lebron. #nbaplayoffs  more: https://t.co/qoyfjgi8hh'
p2
sS'Created At'
p3
S'2016-04-16 22:40:25'
p4
s.(dp0
S'Text'
p1
S'why is my favorite nba player dress like anny? https://t.co/5g5eh9kfjv'
p2
sS'Created At'
p3
S'2016-04-16 22:40:26'
p4
s.(dp0
S'Text'
p1
S'#igotthemavs as my team! who do you got? #nbaplayoffs https://t.co/3nvpavglug'
p2
sS'Created At'
p3
S'2016-04-16 22:40:29'
p4
s.(dp0
S'Text'
p1
S'he need some milk. https://t.co/fi5bkluczm'
p2
sS'Created At'
p3
S'2016-04-16 22:40:30'
p4
s.(dp0
S'Text'
p1
S'1. #nbaplayoffs\n2. dwight howard\n3. james harden\n4. #ufctampa\n5. paul george\n\n2016/4/16 17:36 cdt #trndnl https://t.co/ivleifbyxy'
p2
sS'Created At'
p3
S'2016-04-16 22:40:31'
p4
s.(dp0
S'Text'
p1
S'#igotthehawks as my team! who do you got? #nbaplayoffs https://t.co/ab4hr5sjoc'
p2
sS'Created At'
p3
S'2016-04-16 22:40:31'
p4
s.(dp0
S'Text'
p1
S'what is he wearing https://t.co/b42od1qayq'
p2
sS'Created At'
p3
S'2016-04-16 22:40:31'
p4
s.(dp0
S'Text'
p1
S'russell.. #nbatipo  https://t.co/ecz8ukuf3t'
p2
sS'Created At'
p3
S'2016-04-16 22:40:31'
p4
s.(dp0
S'Text'
p1
S'1. rockets\n2. houston\n3. #nbaplayoffs\n4. golden state\n5. #tradici\xc3\xb3ndecampeones\n\n2016/4/16 18:36 ast #trndnl https://t.co/q2h6ksmyr0'
p2
sS'Created At'
p3
S'2016-04-16 22:40:32'
p4
s.(dp0
S'Text'
p1
S'kyle korver is locked in and ready. #nbaplayoffs \nhttps://t.co/jvqxreelrd'
p2
sS'Created At'
p3
S'2016-04-16 22:40:32'
p4
s.(dp0
S'Text'
p1
S'not bad seats for a playoff game... #nbaplayoffs #hawks https://t.co/m4rrigfuop'
p2
sS'Created At'
p3
S'2016-04-16 22:40:32'
p4
s.(dp0
S'Text'
p1
S'russ swear he fly too  https://t.co/6nvyotqxd1'
p2
sS'Created At'
p3
S'2016-04-16 22:40:34'
p4
s.(dp0
S'Text'
p1
S'pacers take game 1 against raptors 100-90, scores 27 of his 33 in the 2nd half #nbaplayoffs \xef\xbf\xbd\xef\xbf\xbd more: https://t.co/qoyfjgi8hh'
p2
sS'Created At'
p3
S'2016-04-16 22:40:36'
p4
s.(dp0
S'Text'
p1
S'#warriors 104 #rockets 78: final. stephen curry: 24 points, 7 rebounds, and 2 assists. warriors lead series 1-0. #nbaplayoffs'
p2
sS'Created At'
p3
S'2016-04-16 22:40:37'
p4
s.(dp0
S'Text'
p1
S'#igotthemavs as my team! who do you got? #nbaplayoffs https://t.co/ceru0rfolx'
p2
sS'Created At'
p3
S'2016-04-16 22:40:37'
p4
s.(dp0
S'Text'
p1
S'warriors continue where they left off and take game 1 104-78 over the rockets #nbaplayoffs  more: https://t.co/qoyfjgi8hh'
p2
sS'Created At'
p3
S'2016-04-16 22:40:37'
p4
s.(dp0
S'Text'
p1
S'#igottheceltics as my team! who do you got? #nbaplayoffs https://t.co/bpk2usv0e1'
p2
sS'Created At'
p3
S'2016-04-16 22:40:38'
p4
s.(dp0
S'Text'
p1
S'#nbaplayoffs only rooting for #thunder #thunderup'
p2
sS'Created At'
p3
S'2016-04-16 22:40:38'
p4
s.(dp0
S'Text'
p1
S"who's man is this?  https://t.co/mdaelvmywp"
p2
sS'Created At'
p3
S'2016-04-16 22:40:38'
p4
s.(dp0
S'Text'
p1
S'steph curry showing off his qb skills. #gsw #nbaplayoffs  more: https://t.co/qoyfjgi8hh'
p2
sS'Created At'
p3
S'2016-04-16 22:40:39'
p4
s.(dp0
S'Text'
p1
S'the hell is this nigga wearing \xf0\x9f\x98\x82 https://t.co/xucbhumpua'
p2
sS'Created At'
p3
S'2016-04-16 22:40:39'
p4
s.(dp0
S'Text'
p1
S'swag https://t.co/x7reejhc9p'
p2
sS'Created At'
p3
S'2016-04-16 22:40:39'
p4
s.(dp0
S'Text'
p1
S'wtf is he wearing \xf0\x9f\x98\xb1\xf0\x9f\x98\x82 https://t.co/p9aglavlcp'
p2
sS'Created At'
p3
S'2016-04-16 22:40:41'
p4
s.(dp0
S'Text'
p1
S'#igotthethunder as my team! who do you got? #nbaplayoffs https://t.co/9etm0ezgjy'
p2
sS'Created At'
p3
S'2016-04-16 22:40:42'
p4
s.(dp0
S'Text'
p1
S'the fuck... \xf0\x9f\x98\x86\xf0\x9f\x98\x82 https://t.co/d4wpyxwf3x'
p2
sS'Created At'
p3
S'2016-04-16 22:40:43'
p4
s.(dp0
S'Text'
p1
S"the rockets' strategy for the rest of the series: #nbaplayoffs  more: https://t.co/qoyfjgi8hh"
p2
sS'Created At'
p3
S'2016-04-16 22:40:44'
p4
s.(dp0
S'Text'
p1
S'#igottheceltics as my team! who do you got? #nbaplayoffs https://t.co/n6sc4pec5e'
p2
sS'Created At'
p3
S'2016-04-16 22:40:45'
p4
s.(dp0
S'Text'
p1
S'#stephcurry vs #patrickbeverly game 1 of the #nbaplayoffs #warriorsvsrockets #gossiptwins https://t.co/gzweo6ovqd'
p2
sS'Created At'
p3
S'2016-04-16 22:40:47'
p4
s.(dp0
S'Text'
p1
S'#igottheceltics as my team! who do you got? #nbaplayoffs https://t.co/k4y5dtqskd'
p2
sS'Created At'
p3
S'2016-04-16 22:40:50'
p4
s.(dp0
S'Text'
p1
S'#igotthethunder as my team! who do you got? #nbaplayoffs https://t.co/aqrvtqz7ws'
p2
sS'Created At'
p3
S'2016-04-16 22:40:50'
p4
s.(dp0
S'Text'
p1
S'3188 new f0\\/\\/0wers https://t.co/gc7a6vtriq #nbaplayoffs,dwight howard,#cccc,james harden,patrick beverly,raptors,#lemonade,#irrita'
p2
sS'Created At'
p3
S'2016-04-16 22:40:50'
p4
s.(dp0
S'Text'
p1
S'good start warriors #nbaplayoffs'
p2
sS'Created At'
p3
S'2016-04-16 22:40:51'
p4
s.(dp0
S'Text'
p1
S'#igottheceltics as my team! who do you got? #nbaplayoffs https://t.co/c6yo9y8wr5'
p2
sS'Created At'
p3
S'2016-04-16 22:40:52'
p4
s.(dp0
S'Text'
p1
S"it was a very rough game 1, but they couldn't stop #stephencurry \xf0\x9f\x92\xaa https://t.co/poignjpdk9 #warriors 104-78 (1-0). #stephcurry #nbaplayoffs"
p2
sS'Created At'
p3
S'2016-04-16 22:40:52'
p4
s.(dp0
S'Text'
p1
S'#warriors still have lots of things to fix to win another championship. #nbaplayoffs'
p2
sS'Created At'
p3
S'2016-04-16 22:40:53'
p4
s.