(dp0
S'Text'
p1
S'#thevoice #slimane  #formidable #stromae the voice 5 france (2016) https://t.co/abiawgoqz0'
p2
sS'Created At'
p3
S'2016-04-16 22:11:29'
p4
s.(dp0
S'Text'
p1
S'david thibault reprend elvis\n\xf0\x9f\x91\x8d\n\n#thevoice @davidthibaultkg https://t.co/gcpcxuscqi'
p2
sS'Created At'
p3
S'2016-04-16 22:12:23'
p4
s.(dp0
S'Text'
p1
S'tt france 23:13\n1.#thevoice\n2.#sijetaisdansthe100\n3.#finkielkraut\n4.#congratulationsharry\n5.#lesanneesbonheur\n6.curry\n7.rockets\n8.houston'
p2
sS'Created At'
p3
S'2016-04-16 22:13:00'
p4
s.(dp0
S'Text'
p1
S'@nikosaliagas @garou_officiel @mikasounds @florentpagny @zazieonline #thevoice @thevoice_tf1 les live les friends https://t.co/kzzdghjkwp'
p2
sS'Created At'
p3
S'2016-04-16 22:14:00'
p4
s.(dp0
S'Text'
p1
S'.@pharrell #thevoice you the best coach'
p2
sS'Created At'
p3
S'2016-04-16 22:14:14'
p4
s.(dp0
S'Text'
p1
S'https://t.co/c0pl4mqkdb xh #luansantananocaldeir\xc3\xa3o #thevoice #dwight howard'
p2
sS'Created At'
p3
S'2016-04-16 22:14:29'
p4
s.(dp0
S'Text'
p1
S'.@xtina #thevoice i love your voice girl'
p2
sS'Created At'
p3
S'2016-04-16 22:14:44'
p4
s.