(dp0
S'Text'
p1
S"@gingerarse who's fiddling morrissey or marshall, prefer a banjo myself"
p2
sS'Created At'
p3
S'2016-04-16 22:41:41'
p4
s.(dp0
S'Text'
p1
S"and here's banjo \xf0\x9f\x98\x8a https://t.co/h4fgckggdh"
p2
sS'Created At'
p3
S'2016-04-16 22:41:58'
p4
s.