(dp0
S'Text'
p1
S"@antmcfc @thechelseacunt don't pay attention to nt football. bet he'll play either 4-3-3 or 3atb at chelsea."
p2
sS'Created At'
p3
S'2016-04-16 23:52:23'
p4
s.(dp0
S'Text'
p1
S'john obi mikel can help guus hiddink save chelsea\xe2\x80\x99s season..... https://t.co/lja2wxeakr https://t.co/f90luvw8rs'
p2
sS'Created At'
p3
S'2016-04-16 23:52:29'
p4
s.(dp0
S'Text'
p1
S'chelsea fan be like: chelsea fan be like\n https://t.co/uk8oxlz5yt'
p2
sS'Created At'
p3
S'2016-04-16 23:52:30'
p4
s.(dp0
S'Text'
p1
S'@gripper2502 @scattyredhead74 @yakhunt @lsablue oh so you like girl on girl. how did chelsea get on? get a grip, grip'
p2
sS'Created At'
p3
S'2016-04-16 23:52:43'
p4
s.(dp0
S'Text'
p1
S"@username_xo_ @mtv @drdrew it makes me crazy. he is harder on chelsea and kail than he is on je and leah. wtf? i guess he feels it's useless"
p2
sS'Created At'
p3
S'2016-04-16 23:52:44'
p4
s.(dp0
S'Text'
p1
S'lololololol rt @trollfootball: respect to chelsea fans, they are making city feel at home by emptying the stadium.'
p2
sS'Created At'
p3
S'2016-04-16 23:52:47'
p4
s.(dp0
S'Text'
p1
S'chelsea fan be like: chelsea fan be like\n https://t.co/wcxgqckqly'
p2
sS'Created At'
p3
S'2016-04-16 23:52:47'
p4
s.(dp0
S'Text'
p1
S'chelsea take forever wtf .'
p2
sS'Created At'
p3
S'2016-04-16 23:52:51'
p4
s.(dp0
S'Text'
p1
S'being a chelsea fan is so depressing right now'
p2
sS'Created At'
p3
S'2016-04-16 23:52:54'
p4
s.(dp0
S'Text'
p1
S'chelsea fan be like: chelsea fan be like\n https://t.co/hjumt8jfas &gt;&gt;https://t.co/ttepz12eei&lt;&lt;'
p2
sS'Created At'
p3
S'2016-04-16 23:52:55'
p4
s.(dp0
S'Text'
p1
S'"let\'s pregame for applebee\'s" - chelsea \xf0\x9f\x98\xad\xf0\x9f\x98\x82\xf0\x9f\x98\x82 who tf pregames for applebee\'s'
p2
sS'Created At'
p3
S'2016-04-16 23:53:03'
p4
s.(dp0
S'Text'
p1
S'i liked a @youtube video from @doctorbenjy https://t.co/js4hlcqkpb the salford story | part 117 | chelsea replay | football manager'
p2
sS'Created At'
p3
S'2016-04-16 23:53:03'
p4
s.(dp0
S'Text'
p1
S'hass zalim hamno \xf0\x9f\x98\xa9 https://t.co/r6lvclerim chelsea'
p2
sS'Created At'
p3
S'2016-04-16 23:53:05'
p4
s.(dp0
S'Text'
p1
S'\xc2\xbb epl video: chelsea vs manchester city 0-3 2016 all goals &amp; highlights https://t.co/0hnckif0o9'
p2
sS'Created At'
p3
S'2016-04-16 23:53:07'
p4
s.(dp0
S'Text'
p1
S'lol atleast is them getting relegate n chelsea'
p2
sS'Created At'
p3
S'2016-04-16 23:53:08'
p4
s.(dp0
S'Text'
p1
S'busy  day  but  nice  \ngirls  coffee  ,  chelsea  drive  in   country  ,  looked  at  dresses   with  other... https://t.co/cbzhxflwsf'
p2
sS'Created At'
p3
S'2016-04-16 23:53:16'
p4
s.(dp0
S'Text'
p1
S'@chiiaax nay dead ass gave a lil girl her address like why u sayin 22 chelsea court to a 15 yr old'
p2
sS'Created At'
p3
S'2016-04-16 23:53:20'
p4
s.(dp0
S'Text'
p1
S'that is wa i was saying yc, i cant believe it men start out like chelsea https://t.co/imqie6zpxt'
p2
sS'Created At'
p3
S'2016-04-16 23:53:25'
p4
s.(dp0
S'Text'
p1
S'@chelseapipek great job chelsea!'
p2
sS'Created At'
p3
S'2016-04-16 23:53:29'
p4
s.(dp0
S'Text'
p1
S'great new deal from #skybet bet \xc2\xa35 get \xc2\xa320 free click here&gt;&gt; https://t.co/etmj7mjvih  #ronaldo #chelsea #arsenal https://t.co/vxbvfpy2ks'
p2
sS'Created At'
p3
S'2016-04-16 23:53:30'
p4
s.(dp0
S'Text'
p1
S'man u mng, chelsea kalah..today will be a good day'
p2
sS'Created At'
p3
S'2016-04-16 23:53:31'
p4
s.(dp0
S'Text'
p1
S'chelsea always making my day'
p2
sS'Created At'
p3
S'2016-04-16 23:53:45'
p4
s.(dp0
S'Text'
p1
S'consistency is the key\xf0\x9f\x94\x91 https://t.co/ywzjurkdc2'
p2
sS'Created At'
p3
S'2016-04-16 23:53:46'
p4
s.(dp0
S'Text'
p1
S'chelsea gonna slay next year prom i swear \xf0\x9f\x99\x83'
p2
sS'Created At'
p3
S'2016-04-16 23:53:49'
p4
s.(dp0
S'Text'
p1
S"@brooksdt mikel the worst player to wear a chelsea shirt. when he occasionally tackles, it's a foul! passing puts players under pressure"
p2
sS'Created At'
p3
S'2016-04-16 23:53:50'
p4
s.(dp0
S'Text'
p1
S'chelsea look to sign moussa dembele from fulham under the noses of tottenham https://t.co/hbl8ne3rfw #tottenham #coys #thfc'
p2
sS'Created At'
p3
S'2016-04-16 23:54:02'
p4
s.(dp0
S'Text'
p1
S'@czaeduck the chelsea high line, soho, madison square park, union square'
p2
sS'Created At'
p3
S'2016-04-16 23:54:03'
p4
s.(dp0
S'Text'
p1
S'@lgoonerhoward we wanted chelsea to win..did not happen..that was just to make our lives a bit easier..but getting upset over it is poor'
p2
sS'Created At'
p3
S'2016-04-16 23:54:03'
p4
s.(dp0
S'Text'
p1
S'my boy \xf0\x9f\x98\xbb\xf0\x9f\x98\xbb  https://t.co/5wpxfk5e0l'
p2
sS'Created At'
p3
S'2016-04-16 23:54:05'
p4
s.(dp0
S'Text'
p1
S"@garylineker mikel the worst player to wear a chelsea shirt. when he occasionally tackles, it's a foul! passing puts players under pressure"
p2
sS'Created At'
p3
S'2016-04-16 23:54:16'
p4
s.(dp0
S'Text'
p1
S'retweeted zesty juventus news (@zesty_juventus):\n\nscolari issues warning to incoming chelsea boss conte... https://t.co/gzb6yk7ogj'
p2
sS'Created At'
p3
S'2016-04-16 23:54:31'
p4
s.(dp0
S'Text'
p1
S'chelsea look to sign moussa dembele from fulham under the noses of tottenham https://t.co/z5t8jpqvzk'
p2
sS'Created At'
p3
S'2016-04-16 23:54:35'
p4
s.(dp0
S'Text'
p1
S'chelsea look to sign moussa dembele from fulham under the noses of tottenham https://t.co/eu6t0grezs'
p2
sS'Created At'
p3
S'2016-04-16 23:54:42'
p4
s.(dp0
S'Text'
p1
S'hddink: chelsea needs to be in the top four https://t.co/nge5deflt3'
p2
sS'Created At'
p3
S'2016-04-16 23:54:45'
p4
s.(dp0
S'Text'
p1
S'scolari issues warning to incoming chelsea boss conte https://t.co/547mhgsajt'
p2
sS'Created At'
p3
S'2016-04-16 23:54:45'
p4
s.(dp0
S'Text'
p1
S'"  rt abramovich ordered chelsea to sign de bruyne\xe2\x80\xa6 https://t.co/p0azdhgwrq " #sportsroadhouse https://t.co/pvxru7uebd'
p2
sS'Created At'
p3
S'2016-04-16 23:55:01'
p4
s.(dp0
S'Text'
p1
S'chelsea looks good'
p2
sS'Created At'
p3
S'2016-04-16 23:55:02'
p4
s.(dp0
S'Text'
p1
S"so excited for chelsea's wedding\xf0\x9f\x91\xb0\xf0\x9f\x8f\xbc\xf0\x9f\x92\x95"
p2
sS'Created At'
p3
S'2016-04-16 23:55:08'
p4
s.(dp0
S'Text'
p1
S'eden hazard: chelsea midfielder in a dark place - guus hiddink - https://t.co/ts4ycdkkju \xf0\x9f\x98\xa2\xf0\x9f\x92\x94\xf0\x9f\x92\x94\xf0\x9f\x92\x94\xf0\x9f\x92\x94 will always support this man ! \xf0\x9f\x98\x8d'
p2
sS'Created At'
p3
S'2016-04-16 23:55:09'
p4
s.(dp0
S'Text'
p1
S'chelsea clinton coming to seneca falls https://t.co/mdpbwzm1xv'
p2
sS'Created At'
p3
S'2016-04-16 23:55:11'
p4
s.(dp0
S'Text'
p1
S'manchester city win over chelsea motivated by revenge, says manuel pellegrini: manuel pellegrini admitte... https://t.co/lwthoxzbbs #mcfc'
p2
sS'Created At'
p3
S'2016-04-16 23:55:14'
p4
s.(dp0
S'Text'
p1
S"chelsea 0 manchester city 3 reaction: guus hiddink admits visitors 'deserved' win, but says blues ...: c... https://t.co/yka2vc3qeh #mcfc"
p2
sS'Created At'
p3
S'2016-04-16 23:55:14'
p4
s.(dp0
S'Text'
p1
S'aguero treble sinks chelsea, puts pressure on arsenal https://t.co/pc7c27xkol'
p2
sS'Created At'
p3
S'2016-04-16 23:55:15'
p4
s.(dp0
S'Text'
p1
S'#suspiciousvehicle at chelsea st &amp; chelsea pl. #orlpol #opd'
p2
sS'Created At'
p3
S'2016-04-16 23:55:19'
p4
s.(dp0
S'Text'
p1
S'happy weekend!\xf0\x9f\x8c\x8e\xf0\x9f\x99\x8c @ stamford bridge - stadium chelsea fc - london https://t.co/tgvazo2vd3'
p2
sS'Created At'
p3
S'2016-04-16 23:55:19'
p4
s.(dp0
S'Text'
p1
S'no.sory https://t.co/tq70vnl04m'
p2
sS'Created At'
p3
S'2016-04-16 23:55:20'
p4
s.(dp0
S'Text'
p1
S"@tubessocceram mikel the worst player to wear a chelsea shirt. when he occasionally tackles, it's a foul passing puts players under pressure"
p2
sS'Created At'
p3
S'2016-04-16 23:55:23'
p4
s.(dp0
S'Text'
p1
S"jose's chelsea side had a goal diff of +39 this time last season, ours is 10, but let's keep this dickhead cause jose plays boring football"
p2
sS'Created At'
p3
S'2016-04-16 23:55:30'
p4
s.(dp0
S'Text'
p1
S'abramovich ordered chelsea to sign de bruyne: piet de visser, a scout who has worked at stamford bridge since ... https://t.co/cld0llsy2o'
p2
sS'Created At'
p3
S'2016-04-16 23:55:31'
p4
s.(dp0
S'Text'
p1
S'#holluseye abramovich ordered chelsea to sign de bruyne: piet de visser, a scout who has worke... https://t.co/emaosxadzc #teamfollowback'
p2
sS'Created At'
p3
S'2016-04-16 23:55:32'
p4
s.(dp0
S'Text'
p1
S'im finna ft chelsea acting like i wanan talk i just want ah li peak \xf0\x9f\x98\x82\xf0\x9f\x98\x82\xf0\x9f\x98\x82\xf0\x9f\x98\x82\xf0\x9f\x98\x82'
p2
sS'Created At'
p3
S'2016-04-16 23:55:34'
p4
s.(dp0
S'Text'
p1
S'**still available for summer  lux ** (chelsea) $9500 4bd https://t.co/acflv4jami https://t.co/astreopyw8 #roommate'
p2
sS'Created At'
p3
S'2016-04-16 23:55:43'
p4
s.(dp0
S'Text'
p1
S'comfortable studio (chelsea) $1800 567ft2 https://t.co/acflv4jami https://t.co/ebhdtz53yl #roommate'
p2
sS'Created At'
p3
S'2016-04-16 23:55:45'
p4
s.(dp0
S'Text'
p1
S"@bbcsport let's go city ! what a week- psg then a chelsea shut out."
p2
sS'Created At'
p3
S'2016-04-16 23:55:49'
p4
s.(dp0
S'Text'
p1
S'chelsea and i are actually the same person https://t.co/vkbfhx2uel'
p2
sS'Created At'
p3
S'2016-04-16 23:55:58'
p4
s.(dp0
S'Text'
p1
S'chelsea fan be like https://t.co/1kcywrqpem'
p2
sS'Created At'
p3
S'2016-04-16 23:55:58'
p4
s.(dp0
S'Text'
p1
S'#premierleague chelsea desperate to beat tottenham to french wonderkid https://t.co/6vcrtb8nj1'
p2
sS'Created At'
p3
S'2016-04-16 23:56:07'
p4
s.(dp0
S'Text'
p1
S'hi there !!! find about #chelsea update via https://t.co/bpdagis0eh  https://t.co/xqaxf2lpvg'
p2
sS'Created At'
p3
S'2016-04-16 23:56:10'
p4
s.(dp0
S'Text'
p1
S'@gerrishlisa @clintonfdn chelsea should start cooperating w/ investigators to save herself. bill &amp; hill should never have involved her'
p2
sS'Created At'
p3
S'2016-04-16 23:56:13'
p4
s.(dp0
S'Text'
p1
S'put on your pjs, press play, and get ready to chill out. ... - #yoga #healing #weightloss https://t.co/eram50xog5 https://t.co/p3vr7fceyl'
p2
sS'Created At'
p3
S'2016-04-16 23:56:13'
p4
s.(dp0
S'Text'
p1
S"i think its brilliant they didn't \xf0\x9f\x98\x82\xf0\x9f\x98\x82 https://t.co/gjyjopyfky"
p2
sS'Created At'
p3
S'2016-04-16 23:56:15'
p4
s.(dp0
S'Text'
p1
S'chelsea verde black &amp; white houndstooth fringed sweater/cardigan/duster 298 m https://t.co/1uf01tsqth https://t.co/gnx4p4ygzm'
p2
sS'Created At'
p3
S'2016-04-16 23:56:17'
p4
s.(dp0
S'Text'
p1
S'chelsea 30 a myriad anticipate modric call on kaku gladsome be afraid shapely grim reality: wvzujnqf'
p2
sS'Created At'
p3
S'2016-04-16 23:56:27'
p4
s.(dp0
S'Text'
p1
S'uber driver looks like branson like even chelsea said'
p2
sS'Created At'
p3
S'2016-04-16 23:56:32'
p4
s.(dp0
S'Text'
p1
S'wtf has happened to my chelsea?! 3-0 is appalling . fuck this season now'
p2
sS'Created At'
p3
S'2016-04-16 23:56:32'
p4
s.(dp0
S'Text'
p1
S'@aguerosergiokun: motm vs chelsea - rating 10, goals 3, shots (ot) 4(4), key passes 4, dribbles 4 @mcfc  https://t.co/y0w2wx7q6o #bpl'
p2
sS'Created At'
p3
S'2016-04-16 23:56:33'
p4
s.(dp0
S'Text'
p1
S'corinthian collector football card chelsea frank lampard pro744 (card only) https://t.co/sreqvt7vj3 https://t.co/hxtvarkdqh'
p2
sS'Created At'
p3
S'2016-04-16 23:56:39'
p4
s.(dp0
S'Text'
p1
S'diplomats tournament final at chelsea piers tied up 1-1. tunisian ambassador is a former pro, can he seal it? https://t.co/kiab6tuskf'
p2
sS'Created At'
p3
S'2016-04-16 23:56:43'
p4
s.(dp0
S'Text'
p1
S"@breathesport mikel the worst player to wear a chelsea shirt. when he occasionally tackles, it's a foul! passing puts players under pressure"
p2
sS'Created At'
p3
S'2016-04-16 23:56:44'
p4
s.(dp0
S'Text'
p1
S"chelsea can't get top 4..arsene did it with this.. @khdr_96 #justsaying \xf0\x9f\x9a\xb6\xf0\x9f\x8f\xbc https://t.co/pkngtpm2io"
p2
sS'Created At'
p3
S'2016-04-16 23:56:44'
p4
s.(dp0
S'Text'
p1
S'chelsea ace oscar celebrating birth of son #chelsea  https://t.co/x0rtqflp9z https://t.co/yymnz9vucr'
p2
sS'Created At'
p3
S'2016-04-16 23:56:47'
p4
s.(dp0
S'Text'
p1
S'chelsea....why?'
p2
sS'Created At'
p3
S'2016-04-16 23:56:54'
p4
s.(dp0
S'Text'
p1
S'yaya toure enjoyed man city attacking role for chelsea win #chelsea  https://t.co/vgvsl1rdab https://t.co/uog5mqfwvd'
p2
sS'Created At'
p3
S'2016-04-16 23:56:56'
p4
s.(dp0
S'Text'
p1
S'on soccer: with chelsea and arsenal, a chilly handshake kicks off a heated afternoon https://t.co/b7scgyfkkr'
p2
sS'Created At'
p3
S'2016-04-16 23:57:00'
p4
s.(dp0
S'Text'
p1
S'abramovich ordered chelsea to sign de bruyne: piet de visser, a scout who has worked at stamford bridge since ... https://t.co/ukkvsv1jzw'
p2
sS'Created At'
p3
S'2016-04-16 23:57:01'
p4
s.(dp0
S'Text'
p1
S"i dragged chelsea down the hamilton rabbit hole lmao i'm note ven sorry"
p2
sS'Created At'
p3
S'2016-04-16 23:57:01'
p4
s.(dp0
S'Text'
p1
S'abramovich ordered chelsea to sign de bruyne: piet de visser, a scout who has worked at stamford bridge since ... https://t.co/wqbznpdg1o'
p2
sS'Created At'
p3
S'2016-04-16 23:57:02'
p4
s.(dp0
S'Text'
p1
S'#fabuloxmag abramovich ordered chelsea to sign de bruyne: piet de visser, a scout who h... https://t.co/o12eznt4zo https://t.co/n0juldfheo'
p2
sS'Created At'
p3
S'2016-04-16 23:57:04'
p4
s.(dp0
S'Text'
p1
S'#fabuloxmag abramovich ordered chelsea to sign de bruyne: piet de visser, a scout who h... https://t.co/eoqcy181ig https://t.co/2ianpwuyks'
p2
sS'Created At'
p3
S'2016-04-16 23:57:05'
p4
s.(dp0
S'Text'
p1
S'@drmartyfox @callisto1947 either way she is a whore chelsea is not bills'
p2
sS'Created At'
p3
S'2016-04-16 23:57:05'
p4
s.(dp0
S'Text'
p1
S'abramovich ordered chelsea to sign de bruyne: piet de visser, a scout who has worked at stamford bridge since ... https://t.co/y6utsiowdz'
p2
sS'Created At'
p3
S'2016-04-16 23:57:06'
p4
s.(dp0
S'Text'
p1
S'abramovich ordered chelsea to sign de bruyne: piet de visser, a scout who has worked at stamford bridge since ... https://t.co/eiompqp7el'
p2
sS'Created At'
p3
S'2016-04-16 23:57:10'
p4
s.(dp0
S'Text'
p1
S'abramovich ordered chelsea to sign de bruyne: piet de visser, a scout who has worked at stamford bridge since ... https://t.co/nzcnc0djoy'
p2
sS'Created At'
p3
S'2016-04-16 23:57:12'
p4
s.(dp0
S'Text'
p1
S'abramovich ordered chelsea to sign de bruyne: piet de visser, a scout who has worked at stamford bridge since ... https://t.co/btg5rwbn9a'
p2
sS'Created At'
p3
S'2016-04-16 23:57:13'
p4
s.(dp0
S'Text'
p1
S'abramovich ordered chelsea to sign de bruyne: piet de visser, a scout who has worked at stamford bridge since ... https://t.co/yzdldqihcf'
p2
sS'Created At'
p3
S'2016-04-16 23:57:17'
p4
s.(dp0
S'Text'
p1
S'if im trynna tell my brother about something in the city, i have to tell him how far away it is from chelsea union or soho #lavishass'
p2
sS'Created At'
p3
S'2016-04-16 23:57:18'
p4
s.(dp0
S'Text'
p1
S'abramovich ordered chelsea to sign de bruyne: piet de visser, a scout who has worked at stamford bridge since ... https://t.co/ro2rzbsq8q'
p2
sS'Created At'
p3
S'2016-04-16 23:57:20'
p4
s.(dp0
S'Text'
p1
S"i dragged chelsea down the hamilton rabbit hole lmao i'm not even sorry"
p2
sS'Created At'
p3
S'2016-04-16 23:57:22'
p4
s.(dp0
S'Text'
p1
S'half time: chelsea 1-0\narsenal'
p2
sS'Created At'
p3
S'2016-04-16 23:57:24'
p4
s.(dp0
S'Text'
p1
S'new #fifa16 difficulty level !!! #chelsea #easports #ea #gaming https://t.co/slgeo9nyap'
p2
sS'Created At'
p3
S'2016-04-16 23:57:26'
p4
s.(dp0
S'Text'
p1
S'half time: chelsea 1-0 arsenal'
p2
sS'Created At'
p3
S'2016-04-16 23:57:40'
p4
s.(dp0
S'Text'
p1
S'villa relegated, sergio aguero hat-trick sinks chelsea, rafa gets first win and sunderland keeps hope alive: https://t.co/ervlu6t8el'
p2
sS'Created At'
p3
S'2016-04-16 23:57:42'
p4
s.(dp0
S'Text'
p1
S'iac building and chelsea piers from the high line. @ the high line https://t.co/lnlf24xn8c'
p2
sS'Created At'
p3
S'2016-04-16 23:57:54'
p4
s.(dp0
S'Text'
p1
S"@mikeluhg chelsea had a goal difference of -8 when he was sacked. you can't guarantee moruinho will do well, even if he's better than lvg."
p2
sS'Created At'
p3
S'2016-04-16 23:57:55'
p4
s.(dp0
S'Text'
p1
S'chelsea boss hiddink finds loftus-cheek positive in man city humb... #chelsea  https://t.co/x1mdqcpu7a https://t.co/lvp8xnkm90'
p2
sS'Created At'
p3
S'2016-04-16 23:57:56'
p4
s.(dp0
S'Text'
p1
S'abramovich ordered chelsea to sign de bruyne: piet de visser, a scout who has worked at stamford bridge since ... https://t.co/ahostoim3d'
p2
sS'Created At'
p3
S'2016-04-16 23:57:59'
p4
s.(dp0
S'Text'
p1
S'great balance https://t.co/bz4fsgwqsa'
p2
sS'Created At'
p3
S'2016-04-16 23:57:59'
p4
s.(dp0
S'Text'
p1
S'hiddink admits chelsea deserved man city hammering #cfc  https://t.co/rue8iusmyn https://t.co/7m4vqmgnf2'
p2
sS'Created At'
p3
S'2016-04-16 23:58:04'
p4
s.(dp0
S'Text'
p1
S'manchester united transfer news: paris saint-germain ready to sell chelsea\xe2\x80\xa6 https://t.co/h7gghzhfs2 #chelsea #facup https://t.co/qqu6gb6jxy'
p2
sS'Created At'
p3
S'2016-04-16 23:58:05'
p4
s.(dp0
S'Text'
p1
S'john terry pays for the funeral of 8-year-old chelsea fan tommi miller, who sadly passed away from leukemia.\xe2\x80\xa6 https://t.co/3xjwjmmpkn'
p2
sS'Created At'
p3
S'2016-04-16 23:58:06'
p4
s.(dp0
S'Text'
p1
S"my highest form of self is probably an exact replica of chelsea from that's so raven"
p2
sS'Created At'
p3
S'2016-04-16 23:58:13'
p4
s.(dp0
S'Text'
p1
S'mc vs chelsea 3-0 \xf0\x9f\x99\x8c\xf0\x9f\x99\x8c'
p2
sS'Created At'
p3
S'2016-04-16 23:58:14'
p4
s.(dp0
S'Text'
p1
S'@hugthejuice compare the barcelona-chelsea statistics in the last 20 years..'
p2
sS'Created At'
p3
S'2016-04-16 23:58:25'
p4
s.(dp0
S'Text'
p1
S'hi there !! find about #thecitizen update via https://t.co/w5gkpxgthk  https://t.co/nmqpu78dyg'
p2
sS'Created At'
p3
S'2016-04-16 23:58:42'
p4
s.(dp0
S'Text'
p1
S'man city boss pellegrini hails his stars for chelsea win #cfc  https://t.co/yynt4gapmg https://t.co/zbqxrlyyd0'
p2
sS'Created At'
p3
S'2016-04-16 23:58:43'
p4
s.(dp0
S'Text'
p1
S'walking through chelsea eating a clementine w/ $400 in my pocket after shooting in a penthouse apartment'
p2
sS'Created At'
p3
S'2016-04-16 23:58:44'
p4
s.(dp0
S'Text'
p1
S'sad thing. https://t.co/uuabt7teyt'
p2
sS'Created At'
p3
S'2016-04-16 23:58:50'
p4
s.(dp0
S'Text'
p1
S"lol chelsea you ain't serz  https://t.co/4ls5zfclim"
p2
sS'Created At'
p3
S'2016-04-16 23:58:51'
p4
s.(dp0
S'Text'
p1
S"@curlsandsports lolol, she's good i got her in chelsea gear today.  i'm hoping she loves sports like you when she gets older."
p2
sS'Created At'
p3
S'2016-04-16 23:58:55'
p4
s.(dp0
S'Text'
p1
S"@stancollymore mikel the worst player to wear a chelsea shirt. when he occasionally tackles, it's a foul.passing puts players under pressure"
p2
sS'Created At'
p3
S'2016-04-16 23:59:03'
p4
s.(dp0
S'Text'
p1
S'23/09/1986 york city v chelsea [football league cup] . this item is in very good:  \xc2\xa32.99end da... https://t.co/z9iahhxpyk #cfc #chelseafc'
p2
sS'Created At'
p3
S'2016-04-16 23:59:04'
p4
s.(dp0
S'Text'
p1
S'top trumps single card chelsea football club 2013 2014 jamal blackman:  \xc2\xa31.35end date: friday ... https://t.co/2qwrj80twj #cfc #chelseafc'
p2
sS'Created At'
p3
S'2016-04-16 23:59:05'
p4
s.(dp0
S'Text'
p1
S'chelsea look to sign moussa dembele from fulham under the noses of tottenham https://t.co/xqsgh513iy #mail'
p2
sS'Created At'
p3
S'2016-04-16 23:59:12'
p4
s.(dp0
S'Text'
p1
S'yesss! chelsea! \xf0\x9f\x98\x8d\xf0\x9f\x98\x8d\xf0\x9f\x98\x8d\xf0\x9f\x98\x8d https://t.co/89bypcv2j0'
p2
sS'Created At'
p3
S'2016-04-16 23:59:13'
p4
s.(dp0
S'Text'
p1
S"chelsea's mom will be here any minute and she's passed tf out while i'm drinking by myself #heyjanet"
p2
sS'Created At'
p3
S'2016-04-16 23:59:16'
p4
s.(dp0
S'Text'
p1
S'@skysportsnewshq chelsea almost went down this season'
p2
sS'Created At'
p3
S'2016-04-16 23:59:18'
p4
s.(dp0
S'Text'
p1
S'@chelseajzs happy birthday chelsea :)'
p2
sS'Created At'
p3
S'2016-04-16 23:59:29'
p4
s.(dp0
S'Text'
p1
S'https://t.co/gwtg5k8xzb chelsea look to sign moussa dembele from fulham under the noses of tottenham #sportstap https://t.co/net5i9m1dl'
p2
sS'Created At'
p3
S'2016-04-16 23:59:33'
p4
s.(dp0
S'Text'
p1
S'chelsea 0-3 man c \xe2\x9a\xbd\xef\xb8\x8fgo home better\xf0\x9f\x98\x82 @ stanford bridge chelsea stadium https://t.co/yswrl9pzvt'
p2
sS'Created At'
p3
S'2016-04-16 23:59:39'
p4
s.(dp0
S'Text'
p1
S'#chelseafc #chelsea #weareblues hiddink keen to promote youth https://t.co/tdyc3myqph https://t.co/lwtpmylaui'
p2
sS'Created At'
p3
S'2016-04-16 23:59:54'
p4
s.(dp0
S'Text'
p1
S'wow \xf0\x9f\x98\x8d\xf0\x9f\x98\x8d\xf0\x9f\x98\x8d https://t.co/ufqj6y0gej chelsea'
p2
sS'Created At'
p3
S'2016-04-16 23:59:56'
p4
s.(dp0
S'Text'
p1
S"me and chelsea: ok we're not eating until the party.. \n*4 hours later* \nme: do you want spaghetti? @mckenzyyyyyy"
p2
sS'Created At'
p3
S'2016-04-17 00:00:01'
p4
s.(dp0
S'Text'
p1
S'top trends ghana-apr16 23:45 gmt\n#uewdeypap\n#partytime\n#takeitback\naston villa\n#mtnfacup\nchelsea\xf0\x9f\x8c\x90\n\nhttps://t.co/sbgsbdippu'
p2
sS'Created At'
p3
S'2016-04-17 00:00:02'
p4
s.(dp0
S'Text'
p1
S"@talksport mikel the worst player to wear a chelsea shirt. when he occasionally tackles, it's a foul! passing puts players under pressure"
p2
sS'Created At'
p3
S'2016-04-17 00:00:05'
p4
s.(dp0
S'Text'
p1
S'chelsea legend didier drogba destroys #montrealimpact team mate... #montrealimpact https://t.co/ffrcstrrbl'
p2
sS'Created At'
p3
S'2016-04-17 00:00:09'
p4
s.(dp0
S'Text'
p1
S'@jkodasea_ me mido bien disgusting chelsea omg'
p2
sS'Created At'
p3
S'2016-04-17 00:00:15'
p4
s.(dp0
S'Text'
p1
S'1. #gainwithxtiandela\n2. chelsea\n3. #whataboutthevictims\n4. #weareoneafraha\n5. #asantekenya\n\n2016/4/17 02:54 eat https://t.co/6aydqdzq89'
p2
sS'Created At'
p3
S'2016-04-17 00:00:18'
p4
s.(dp0
S'Text'
p1
S"much as i am enjoying the leicester fairytale, i have to admit chelsea's shit season and the look on their supporters faces makes me happier"
p2
sS'Created At'
p3
S'2016-04-17 00:00:26'
p4
s.(dp0
S'Text'
p1
S'new video alert from @chelsea_pastel  https://t.co/i1xxrx553p'
p2
sS'Created At'
p3
S'2016-04-17 00:00:37'
p4
s.(dp0
S'Text'
p1
S"chelsea midfielder cesc fabregas says he hardly knew about manchester city's kevin de bruyne before this season, and has been surpris..."
p2
sS'Created At'
p3
S'2016-04-17 00:00:38'
p4
s.(dp0
S'Text'
p1
S'penalty to chelsea and a red card for monreal!'
p2
sS'Created At'
p3
S'2016-04-17 00:00:39'
p4
s.(dp0
S'Text'
p1
S"@gracedrane yeah ok ok. plus he was bound to score vs chelsea i guess! i'm not putting rashford in mine because i don't want to curse him.."
p2
sS'Created At'
p3
S'2016-04-17 00:00:41'
p4
s.(dp0
S'Text'
p1
S"@joshcthbert chelsea you're literally a walking diabetes awareness ad"
p2
sS'Created At'
p3
S'2016-04-17 00:00:44'
p4
s.(dp0
S'Text'
p1
S'manuel pellegrini insists sergio aguero is best player in the premier league after chelsea treble #football https://t.co/acjl6u8hdj'
p2
sS'Created At'
p3
S'2016-04-17 00:00:48'
p4
s.(dp0
S'Text'
p1
S'hiddink rules out terry and hazard from chelsea v man city... https://t.co/azdbxxaldt https://t.co/1q8jmhlzqn'
p2
sS'Created At'
p3
S'2016-04-17 00:00:49'
p4
s.(dp0
S'Text'
p1
S'hiddink giving young players a chance -  https://t.co/tabakfft9a hiddink says he is using chelsea&amp;#039;s remaining games to give match...'
p2
sS'Created At'
p3
S'2016-04-17 00:00:55'
p4
s.